(dp0
S'unimaginative'
p1
I3
sS'writings'
p2
I1
sS'dissolution'
p3
I1
sS'dynamic'
p4
I1
sS'ryoko'
p5
I1
sS'yellow'
p6
I1
sS'factory'
p7
I1
sS'four'
p8
I6
sS'clotted'
p9
I1
sS'asian'
p10
I1
sS'railing'
p11
I1
sS'woody'
p12
I4
sS'breathless'
p13
I1
sS'captain'
p14
I1
sS'conjure'
p15
I1
sS'whose'
p16
I9
sS'gamut'
p17
I2
sS'buddy'
p18
I2
sS'swan'
p19
I1
sS'unanswered'
p20
I1
sS'originality'
p21
I5
sS'recycle'
p22
I1
sS'portentous'
p23
I1
sS'immature'
p24
I2
sS'a-team'
p25
I1
sS'slow-moving'
p26
I1
sS'rescue'
p27
I2
sS'callie'
p28
I1
sS'void'
p29
I1
sS'levy'
p30
I1
sS'foul'
p31
I1
sS'formula'
p32
I9
sS'overcomes'
p33
I1
sS'low-budget'
p34
I4
sS'screaming'
p35
I1
sS'ramis'
p36
I1
sS'hit-and-miss'
p37
I2
sS'waldo'
p38
I1
sS'wooden'
p39
I3
sS'graced'
p40
I1
sS'wednesday'
p41
I1
sS'indefinitely'
p42
I1
sS'moralism'
p43
I1
sS'unrelated'
p44
I1
sS'wending'
p45
I1
sS'succession'
p46
I2
sS'anticipation'
p47
I1
sS'stereotypical'
p48
I1
sS'deplorable'
p49
I1
sS'heading'
p50
I1
sS'naturalism'
p51
I3
sS'clothes'
p52
I3
sS'uncovers'
p53
I1
sS'force'
p54
I2
sS'anti-darwinian'
p55
I1
sS'string-pulling'
p56
I1
sS'tired'
p57
I11
sS'miller'
p58
I1
sS'bacon'
p59
I1
sS'japanese'
p60
I2
sS'pulse'
p61
I2
sS'holocaust'
p62
I2
sS'second'
p63
I8
sS'crisply'
p64
I1
sS'helluva'
p65
I1
sS'even'
p66
I70
sS'admire'
p67
I3
sS'spouses'
p68
I1
sS'saved'
p69
I2
sS'contributed'
p70
I1
sS'fingers'
p71
I1
sS'hazy'
p72
I1
sS'lights'
p73
I1
sS'cross-cultural'
p74
I1
sS'rymer'
p75
I1
sS'new'
p76
I39
sS'marching'
p77
I1
sS'ever'
p78
I23
sS'succumb'
p79
I1
sS'shocks'
p80
I1
sS'insinuation'
p81
I1
sS'hero'
p82
I7
sS'screams'
p83
I1
sS'chins'
p84
I1
sS'brit-com'
p85
I1
sS'disposable'
p86
I2
sS'weirdly'
p87
I2
sS'unseemly'
p88
I1
sS'fun'
p89
I21
sS'drek'
p90
I1
sS'outer-space'
p91
I1
sS'cult'
p92
I1
sS'cardboard'
p93
I1
sS'shriek'
p94
I1
sS'doldrums'
p95
I1
sS'kids'
p96
I10
sS'uplifting'
p97
I1
sS'jams'
p98
I1
sS'frightfest'
p99
I1
sS'pretensions'
p100
I2
sS'k'
p101
I3
sS'vulnerability'
p102
I2
sS'gone-to-seed'
p103
I1
sS'controversy'
p104
I2
sS'credit'
p105
I2
sS'kidd'
p106
I1
sS'california'
p107
I1
sS'intrigue'
p108
I1
sS'astute'
p109
I1
sS'criticism'
p110
I1
sS'appropriately'
p111
I1
sS'divide'
p112
I1
sS'psychological'
p113
I3
sS'specifics'
p114
I1
sS'ninety'
p115
I1
sS'moral'
p116
I4
sS'drowned'
p117
I2
sS'perhaps'
p118
I4
sS'labyrinthine'
p119
I1
sS'scarier'
p120
I1
sS'presents'
p121
I2
sS'wankery'
p122
I1
sS'lame-old'
p123
I1
sS'runyon'
p124
I1
sS'arms'
p125
I1
sS'cannibal'
p126
I2
sS'leaks'
p127
I1
sS'bike'
p128
I1
sS'music'
p129
I7
sS'recommend'
p130
I9
sS'strike'
p131
I1
sS'survive'
p132
I2
sS'leaky'
p133
I2
sS'type'
p134
I2
sS'tell'
p135
I8
sS'suffocated'
p136
I1
sS'preparation'
p137
I1
sS'borstal'
p138
I1
sS'whatsoever'
p139
I2
sS'mired'
p140
I4
sS'wary'
p141
I1
sS'successful'
p142
I3
sS'brings'
p143
I2
sS'expose'
p144
I1
sS'hereby'
p145
I1
sS'wars'
p146
I3
sS'gunplay'
p147
I2
sS'hurt'
p148
I1
sS'ruminations'
p149
I1
sS'glass'
p150
I4
sS'warm'
p151
I1
sS'adult'
p152
I4
sS'teen-exploitation'
p153
I1
sS'hole'
p154
I2
sS'hold'
p155
I3
sS'sorry'
p156
I3
sS'directorial'
p157
I6
sS'morally'
p158
I2
sS'room'
p159
I7
sS'trots'
p160
I2
sS'unessential'
p161
I1
sS'blade'
p162
I2
sS'somber'
p163
I1
sS'awakening'
p164
I2
sS'regrets'
p165
I1
sS'movies'
p166
I33
sS'suggestive'
p167
I1
sS'exploitative'
p168
I6
sS'defecates'
p169
I1
sS'akin'
p170
I2
sS'root'
p171
I1
sS'example'
p172
I2
sS'merchant'
p173
I2
sS'buffoonery'
p174
I1
sS'give'
p175
I14
sS'household'
p176
I1
sS'laughs'
p177
I17
sS'dragons'
p178
I3
sS'involve'
p179
I1
sS'currency'
p180
I1
sS'bluescreen'
p181
I1
sS'stupidities'
p182
I1
sS'want'
p183
I17
sS'association'
p184
I1
sS'hundert'
p185
I1
sS'gargantuan'
p186
I2
sS'absolute'
p187
I2
sS'preferably'
p188
I1
sS'aging'
p189
I1
sS'aceitou'
p190
I1
sS'elicited'
p191
I1
sS'rabbit-proof'
p192
I1
sS'feature'
p193
I6
sS'machine'
p194
I3
sS'upper-crust'
p195
I1
sS'hot'
p196
I3
sS'purport'
p197
I1
sS'hop'
p198
I1
sS'answer'
p199
I1
sS'preferable'
p200
I1
sS'dignified'
p201
I1
sS'blanks'
p202
I1
sS'minority'
p203
I3
sS'beauty'
p204
I1
sS'swing'
p205
I1
sS'loyalty'
p206
I2
sS'despondent'
p207
I1
sS'wrong'
p208
I11
sS'curiosity'
p209
I3
sS'misfit'
p210
I1
sS'types'
p211
I1
sS'period'
p212
I3
sS'execrable'
p213
I1
sS'attempt'
p214
I16
sS'effective'
p215
I2
sS'wins'
p216
I2
sS'attracts'
p217
I1
sS'fleetingly'
p218
I1
sS'descends'
p219
I1
sS'subplots'
p220
I2
sS'think'
p221
I21
sS'sickening'
p222
I1
sS'gut-busting'
p223
I1
sS'waited'
p224
I1
sS'keeps'
p225
I4
sS'soon-to-be-forgettable'
p226
I1
sS'nonsensical'
p227
I5
sS'wind'
p228
I2
sS'updates'
p229
I1
sS'less-than-magic'
p230
I1
sS'stop-go'
p231
I1
sS'unfolds'
p232
I1
sS'bug-eyed'
p233
I1
sS'dreamed'
p234
I1
sS'misdemeanor'
p235
I1
sS'murray'
p236
I1
sS'sidekicks'
p237
I1
sS'kill-by-numbers'
p238
I1
sS'fable'
p239
I4
sS'windshield'
p240
I1
sS'admirably'
p241
I1
sS'moviegoing'
p242
I2
sS'shoot-outs'
p243
I1
sS'fit'
p244
I6
sS'benign'
p245
I1
sS'personal'
p246
I2
sS'heretofore'
p247
I1
sS'striking'
p248
I2
sS'intelligentsia'
p249
I1
sS'anemic'
p250
I1
sS'better'
p251
I37
sS'distinguishing'
p252
I1
sS'oh-so'
p253
I1
sS'insubstantial'
p254
I1
sS'generaciones'
p255
I1
sS'hidden'
p256
I1
sS'admirable'
p257
I2
sS'easier'
p258
I3
sS'overcome'
p259
I3
sS'undercut'
p260
I3
sS'sinuously'
p261
I1
sS'muniz'
p262
I1
sS'workout'
p263
I1
sS'therapy'
p264
I1
sS'effects'
p265
I15
sS'indulge'
p266
I1
sS'schools'
p267
I1
sS'glazed'
p268
I1
sS'ecks'
p269
I1
sS'punitively'
p270
I1
sS'silver'
p271
I1
sS'sleaziness'
p272
I1
sS'represents'
p273
I5
sS'art-conscious'
p274
I1
sS'meat'
p275
I4
sS'debut'
p276
I7
sS'skills'
p277
I4
sS'mob'
p278
I1
sS'daughters'
p279
I1
sS'addicted'
p280
I1
sS'went'
p281
I3
sS'meal'
p282
I1
sS'bone'
p283
I1
sS'mean'
p284
I7
sS'preceded'
p285
I1
sS'stupefying'
p286
I1
sS'dolphin-gasm'
p287
I1
sS'series'
p288
I17
sS'unsurprising'
p289
I1
sS'long-running'
p290
I1
sS'fang-baring'
p291
I1
sS'haber'
p292
I1
sS'used'
p293
I3
sS'yiddish'
p294
I1
sS'stealing'
p295
I4
sS'ages-old'
p296
I1
sS'worn-out'
p297
I1
sS'dawn'
p298
I1
sS'whir'
p299
I1
sS'comedies'
p300
I3
sS'whip'
p301
I1
sS'jell'
p302
I1
sS'contend'
p303
I2
sS'misfortune'
p304
I1
sS'borrowed'
p305
I1
sS'hushed'
p306
I1
sS'tales'
p307
I2
sS'excepting'
p308
I1
sS'include'
p309
I2
sS'content'
p310
I4
sS'heavy-duty'
p311
I1
sS'undeserved'
p312
I1
sS'surprise'
p313
I5
sS'millions'
p314
I1
sS'sluggish'
p315
I3
sS'swoony'
p316
I1
sS'dust-caked'
p317
I1
sS'grease'
p318
I2
sS'turning'
p319
I3
sS'whiff'
p320
I1
sS'cutesy'
p321
I2
sS'sheer'
p322
I4
sS'negotiate'
p323
I1
sS'assures'
p324
I1
sS'struggle'
p325
I4
sS'enhance'
p326
I2
sS'greasy'
p327
I1
sS'ate'
p328
I1
sS'washout'
p329
I1
sS'messages'
p330
I1
sS'moment'
p331
I6
sS'ups'
p332
I2
sS'speedy'
p333
I1
sS'tempting'
p334
I2
sS'kingdom'
p335
I2
sS'moving'
p336
I5
sS'loud'
p337
I8
sS'caught'
p338
I2
sS'eileen'
p339
I1
sS'playwright'
p340
I1
sS'vittorio'
p341
I1
sS'features'
p342
I1
sS'grade'
p343
I3
sS'subtlety'
p344
I3
sS'reassure'
p345
I1
sS'hook'
p346
I3
sS'featured'
p347
I1
sS'warped'
p348
I1
sS'clarity'
p349
I1
sS'monotonous'
p350
I2
sS'seizures'
p351
I1
sS'basketball'
p352
I2
sS'ronn'
p353
I1
sS'service'
p354
I1
sS'similarly'
p355
I1
sS'girls'
p356
I3
sS'needed'
p357
I5
sS'master'
p358
I5
sS'hollywood'
p359
I23
sS'legs'
p360
I1
sS'bitter'
p361
I1
sS'genesis'
p362
I1
sS'hewitt'
p363
I4
sS'danish'
p364
I1
sS'dramatized'
p365
I1
sS'predictably'
p366
I3
sS'soul-searching'
p367
I2
sS'prosthetic'
p368
I1
sS'wisdom'
p369
I1
sS'task'
p370
I1
sS'predictable'
p371
I14
sS'stoic'
p372
I1
sS'somewhat'
p373
I7
sS'requisite'
p374
I1
sS'peculiar'
p375
I3
sS'positively'
p376
I4
sS'begins'
p377
I7
sS'distance'
p378
I3
sS'trek'
p379
I5
sS'surrounding'
p380
I4
sS'conforms'
p381
I1
sS'mattei'
p382
I1
sS'solemnity'
p383
I1
sS'tree'
p384
I1
sS'likely'
p385
I15
sS'mattel'
p386
I1
sS'project'
p387
I10
sS'matter'
p388
I12
sS'silly'
p389
I20
sS'endure'
p390
I2
sS'childlike'
p391
I1
sS'threadbare'
p392
I2
sS'feeling'
p393
I8
sS'extracting'
p394
I1
sS'este'
p395
I1
sS'unintended'
p396
I1
sS'sees'
p397
I1
sS'esta'
p398
I1
sS'willingness'
p399
I1
sS'gaudy'
p400
I1
sS'runner'
p401
I1
sS'stomping'
p402
I1
sS'modern'
p403
I5
sS'mind'
p404
I7
sS'mine'
p405
I1
sS'loathsome'
p406
I1
sS'ugly-duckling'
p407
I1
sS'pantheon'
p408
I2
sS'corny'
p409
I2
sS'seen'
p410
I16
sS'seem'
p411
I29
sS'churn'
p412
I1
sS'tells'
p413
I4
sS'dozen'
p414
I1
sS'mothman'
p415
I2
sS'uncouth'
p416
I1
sS'self-flagellation'
p417
I1
sS'murder-on-campus'
p418
I1
sS'recommended'
p419
I1
sS'amusing'
p420
I7
sS'doors'
p421
I1
sS'ill-fitting'
p422
I1
sS'hoods'
p423
I1
sS'un-bear-able'
p424
I1
sS'tunnels'
p425
I1
sS'caricatures'
p426
I1
sS'baseball-playing'
p427
I1
sS'shall'
p428
I1
sS'hawk-style'
p429
I1
sS'overplayed'
p430
I1
sS'cinematic'
p431
I14
sS'disjointed'
p432
I3
sS'mouth'
p433
I1
sS'letter'
p434
I1
sS'entry'
p435
I3
sS'hide-and-seek'
p436
I1
sS'thriller'
p437
I18
sS'morality'
p438
I4
sS'broadcast'
p439
I2
sS'singer'
p440
I1
sS'romance-novel'
p441
I1
sS'episode'
p442
I4
sS'get-go'
p443
I2
sS'antitrust'
p444
I1
sS'sillified'
p445
I1
sS'mushy'
p446
I3
sS'medical'
p447
I1
sS'camp'
p448
I2
sS'm'
p449
I4
sS'dog'
p450
I8
sS'breathes'
p451
I1
sS'randall'
p452
I2
sS'stand-up-comedy'
p453
I1
sS'points'
p454
I10
sS'cama'
p455
I1
sS'hotdog'
p456
I2
sS'scream'
p457
I1
sS'incomplete'
p458
I1
sS'hayseeds-vs'
p459
I1
sS'saying'
p460
I4
sS'chirpy'
p461
I1
sS'amoses'
p462
I1
sS'one-dimensional'
p463
I1
sS'tequila'
p464
I1
sS'implodes'
p465
I1
sS'brilliance'
p466
I1
sS'sexist'
p467
I1
sS'ending'
p468
I12
sS'padded'
p469
I1
sS'attempts'
p470
I7
sS'absorbs'
p471
I1
sS'falsehoods'
p472
I1
sS'tempted'
p473
I1
sS'portent-heavy'
p474
I1
sS'art-directed'
p475
I1
sS'caper'
p476
I1
sS'larson'
p477
I1
sS'touches'
p478
I3
sS'busy'
p479
I3
sS'unleashes'
p480
I1
sS'regurgitates'
p481
I1
sS'self-glorification'
p482
I1
sS'sugar'
p483
I3
sS'theme'
p484
I2
sS'rich'
p485
I4
sS'heartily'
p486
I1
sS'rice'
p487
I4
sS'innovation'
p488
I2
sS'lady'
p489
I2
sS'plate'
p490
I1
sS'klein'
p491
I2
sS'stop'
p492
I2
sS'terrors'
p493
I1
sS'perpetrating'
p494
I1
sS'pocket'
p495
I1
sS'sniping'
p496
I1
sS'all-star'
p497
I1
sS'cushion'
p498
I1
sS'altogether'
p499
I3
sS'smug'
p500
I3
sS'tawdry'
p501
I3
sS'earn'
p502
I3
sS'bar'
p503
I3
sS'ballistic-pyrotechnic'
p504
I1
sS'nicely'
p505
I1
sS'fields'
p506
I2
sS'age-wise'
p507
I1
sS'thrusts'
p508
I1
sS'patch'
p509
I2
sS'bag'
p510
I5
sS'eyelids'
p511
I1
sS'architecture'
p512
I1
sS'release'
p513
I5
sS'handsome-looking'
p514
I1
sS'ears'
p515
I1
sS'respond'
p516
I2
sS'playstation'
p517
I1
sS'momentos'
p518
I2
sS'decides'
p519
I2
sS'disaster'
p520
I5
sS'fair'
p521
I1
sS'ill-wrought'
p522
I1
sS'homo-eroticism'
p523
I1
sS'sensitivity'
p524
I1
sS'blank-faced'
p525
I1
sS'widget'
p526
I1
sS'light'
p527
I8
sS'caulfield'
p528
I1
sS'bled'
p529
I1
sS'decided'
p530
I1
sS'result'
p531
I8
sS'fail'
p532
I1
sS'snoozer'
p533
I1
sS'hammer'
p534
I2
sS'best'
p535
I29
sS'subject'
p536
I16
sS'underarm'
p537
I1
sS'said'
p538
I7
sS'repugnance'
p539
I1
sS'ambitions'
p540
I1
sS'lots'
p541
I5
sS'ringu'
p542
I1
sS'rings'
p543
I2
sS'artificial'
p544
I5
sS'thesps'
p545
I1
sS'irk'
p546
I1
sS'uppity'
p547
I1
sS'baboon'
p548
I1
sS'tolerance'
p549
I1
sS'rigid'
p550
I1
sS'lazy'
p551
I2
sS'men'
p552
I7
sS'wears'
p553
I4
sS'nature'
p554
I3
sS'rolled'
p555
I1
sS'self-congratulatory'
p556
I1
sS'harvard'
p557
I5
sS'extent'
p558
I1
sS'defiance'
p559
I1
sS'cousin'
p560
I1
sS'aim'
p561
I1
sS'pity'
p562
I2
sS'outcome'
p563
I1
sS'voyeuristic'
p564
I1
sS'valedictorian'
p565
I1
sS'adventures'
p566
I2
sS'amazing'
p567
I1
sS'prefabricated'
p568
I1
sS'planned'
p569
I1
sS'logic'
p570
I2
sS'asked'
p571
I1
sS'rehash'
p572
I1
sS'twenty-three'
p573
I1
sS'appeared'
p574
I1
sS'fudged'
p575
I1
sS'irresponsible'
p576
I3
sS'lullaby'
p577
I1
sS'blutarsky'
p578
I1
sS'height'
p579
I1
sS'quinn'
p580
I1
sS'springs'
p581
I1
sS'blonde'
p582
I1
sS'toolbags'
p583
I1
sS'skids'
p584
I1
sS'underdone'
p585
I1
sS'puts'
p586
I6
sS'basis'
p587
I1
sS'disgracefully'
p588
I1
sS'tiny'
p589
I1
sS'milieu'
p590
I1
sS'bothers'
p591
I1
sS'much'
p592
I83
sS'makhmalbaf'
p593
I1
sS'interest'
p594
I11
sS'progenitor'
p595
I1
sS'undistinguished'
p596
I1
sS'jackass'
p597
I1
sS'incompetent'
p598
I2
sS'threw'
p599
I1
sS'conversational'
p600
I1
sS'life'
p601
I29
sS'philosophically'
p602
I1
sS'deeper'
p603
I2
sS'sag'
p604
I1
sS'depravity'
p605
I1
sS'filmmaker'
p606
I3
sS'snap'
p607
I2
sS'substance'
p608
I5
sS'reno'
p609
I3
sS'child'
p610
I2
sS'tiniest'
p611
I1
sS'worked'
p612
I3
sS'voices'
p613
I2
sS'spin'
p614
I1
sS'oozes'
p615
I1
sS'distorts'
p616
I1
sS'exception'
p617
I3
sS'gritty'
p618
I2
sS'remakes'
p619
I1
sS'tang'
p620
I1
sS'starts'
p621
I8
sS'professionally'
p622
I1
sS'employ'
p623
I1
sS'ugly'
p624
I6
sS'lizard'
p625
I1
sS'moratorium'
p626
I1
sS'suppose'
p627
I1
sS'hates'
p628
I1
sS'appeals'
p629
I1
sS'murders'
p630
I1
sS'cloaks'
p631
I1
sS'elaborate'
p632
I1
sS'skirts'
p633
I1
sS'remembering'
p634
I2
sS'shamu'
p635
I1
sS'seven'
p636
I3
sS'changed'
p637
I1
sS'metropolitan'
p638
I1
sS'played'
p639
I4
sS'spectacle'
p640
I4
sS'verges'
p641
I1
sS'defeated'
p642
I1
sS'letdown'
p643
I2
sS'player'
p644
I4
sS'elicit'
p645
I1
sS'upscale'
p646
I1
sS'splendour'
p647
I1
sS'ia'
p648
I1
sS'madonna'
p649
I2
sS'ignoring'
p650
I1
sS'mouse'
p651
I1
sS'evincing'
p652
I1
sS'sever'
p653
I1
sS'valueless'
p654
I1
sS'hong'
p655
I3
sS'shimmering'
p656
I2
sS'hokey'
p657
I4
sS'jolting'
p658
I1
sS'things'
p659
I26
sS'realizing'
p660
I1
sS'cumulative'
p661
I2
sS'doofus'
p662
I1
sS'haphazard'
p663
I3
sS'roland'
p664
I1
sS'belly'
p665
I1
sS'unfortunate'
p666
I1
sS'zoolander'
p667
I1
sS'writer-producer-director'
p668
I1
sS'grows'
p669
I4
sS'european'
p670
I2
sS'fairly'
p671
I4
sS'shatner'
p672
I1
sS'effortlessly'
p673
I1
sS'inadvertently'
p674
I1
sS'middle-aged'
p675
I1
sS'allodi'
p676
I1
sS'delight'
p677
I1
sS'toback'
p678
I1
sS'preachy'
p679
I5
sS'nurtured'
p680
I1
sS'opportunity'
p681
I5
sS'tune'
p682
I1
sS'kid'
p683
I2
sS'butter'
p684
I1
sS'wimmer'
p685
I1
sS'weakly'
p686
I1
sS'lucas'
p687
I1
sS'romp'
p688
I2
sS'failing'
p689
I1
sS'redeem'
p690
I2
sS'academic'
p691
I1
sS'materials'
p692
I1
sS'reese'
p693
I1
sS'qualities'
p694
I2
sS'claims'
p695
I1
sS'backhanded'
p696
I1
sS'corporate'
p697
I1
sS'left'
p698
I16
sS'rancorous'
p699
I1
sS'absurdities'
p700
I2
sS'sentence'
p701
I2
sS'smashups'
p702
I1
sS'dearly'
p703
I1
sS'deadeningly'
p704
I1
sS'disguise'
p705
I5
sS'human'
p706
I9
sS'stultifyingly'
p707
I1
sS'yep'
p708
I1
sS'plight'
p709
I2
sS'punchlines'
p710
I1
sS'portrayed'
p711
I1
sS'previous'
p712
I7
sS'enters'
p713
I1
sS'hal'
p714
I3
sS'ham'
p715
I1
sS'thrift-shop'
p716
I1
sS'solondz'
p717
I2
sS'old-fashioned'
p718
I2
sS'assassination'
p719
I1
sS'dimwitted'
p720
I1
sS'fresh-faced'
p721
I1
sS'genevieve'
p722
I1
sS'topical'
p723
I2
sS'squad'
p724
I1
sS'middle-of-the-road'
p725
I1
sS'easy'
p726
I8
sS'prison'
p727
I5
sS'east'
p728
I1
sS'trimming'
p729
I1
sS'mcdormand'
p730
I1
sS'heart-tugging'
p731
I1
sS'ops'
p732
I1
sS'possible'
p733
I6
sS'perfunctory'
p734
I2
sS'possibly'
p735
I4
sS'ducts'
p736
I1
sS'indicative'
p737
I1
sS'julia'
p738
I1
sS'birth'
p739
I1
sS'performance'
p740
I18
sS'shadow'
p741
I1
sS'unique'
p742
I2
sS'dreams'
p743
I3
sS'vanity'
p744
I2
sS'desire'
p745
I3
sS'dignity'
p746
I2
sS'paraphrase'
p747
I1
sS'airhead'
p748
I1
sS'bobby'
p749
I1
sS'performing'
p750
I1
sS'alice'
p751
I1
sS'intermittently'
p752
I2
sS'remind'
p753
I1
sS'disconnects'
p754
I1
sS'malnutrition'
p755
I1
sS'egoyan'
p756
I1
sS'notorious'
p757
I1
sS'grotesquely'
p758
I1
sS'sympathize'
p759
I1
sS'battlefield'
p760
I1
sS'right'
p761
I19
sS'old'
p762
I24
sS'squander'
p763
I1
sS'crowd'
p764
I5
sS'people'
p765
I34
sS'creed'
p766
I1
sS'somehow'
p767
I5
sS'dead'
p768
I10
sS'two-drink-minimum'
p769
I1
sS'wwf'
p770
I1
sS'winds'
p771
I3
sS'dear'
p772
I1
sS'pain'
p773
I3
sS'direto'
p774
I1
sS'enemies'
p775
I1
sS'theatrical'
p776
I1
sS'sociology'
p777
I1
sS'dense'
p778
I1
sS'trace'
p779
I2
sS'bottom'
p780
I2
sS'roster'
p781
I1
sS'daytime'
p782
I4
sS'creative'
p783
I1
sS'witty'
p784
I1
sS'flopping'
p785
I1
sS'landscape'
p786
I1
sS'pender'
p787
I1
sS'arthritic'
p788
I1
sS'banality'
p789
I3
sS'bold'
p790
I2
sS'spider-man'
p791
I1
sS'burn'
p792
I1
sS'boll'
p793
I2
sS'registering'
p794
I1
sS'protagonist'
p795
I2
sS'shifting'
p796
I1
sS'bolt'
p797
I1
sS'starring'
p798
I6
sS'burr'
p799
I1
sS'memorable'
p800
I5
sS'one-of-a-kind'
p801
I1
sS'super'
p802
I1
sS'valium'
p803
I1
sS'empowerment'
p804
I1
sS'dollars'
p805
I1
sS'phlegmatic'
p806
I1
sS'o'
p807
I6
sS'magazine'
p808
I1
sS'despair'
p809
I1
sS'repellent'
p810
I2
sS'afternoon'
p811
I1
sS'stoked'
p812
I1
sS'slightly'
p813
I2
sS'nerve'
p814
I1
sS'raised'
p815
I2
sS'gloss'
p816
I1
sS'statements'
p817
I1
sS'respectably'
p818
I1
sS'intellectual'
p819
I4
sS'undermining'
p820
I2
sS'overkill'
p821
I2
sS'raises'
p822
I1
sS'narration'
p823
I1
sS'nervy'
p824
I1
sS'fabric'
p825
I3
sS'weathered'
p826
I1
sS'waits'
p827
I2
sS'panorama'
p828
I1
sS'support'
p829
I2
sS'constantly'
p830
I3
sS'tame'
p831
I1
sS'lampoon'
p832
I1
sS'grasping'
p833
I1
sS'editor'
p834
I1
sS'fraction'
p835
I1
sS'jane'
p836
I1
sS'call'
p837
I8
sS'independent-community'
p838
I1
sS'turkey-on-rolls'
p839
I1
sS'trappings'
p840
I1
sS'fabuleux'
p841
I1
sS'lurid'
p842
I1
sS'form'
p843
I4
sS'offer'
p844
I7
sS'talento'
p845
I1
sS'ford'
p846
I4
sS'failure'
p847
I7
sS'talents'
p848
I4
sS'powerfully'
p849
I1
sS'penned'
p850
I1
sS'cluelessness'
p851
I1
sS'especially'
p852
I6
sS'circumstantial'
p853
I1
sS'silliness'
p854
I2
sS'myopic'
p855
I2
sS'inside'
p856
I6
sS'staged'
p857
I3
sS'devices'
p858
I1
sS'epps'
p859
I2
sS'stagey'
p860
I1
sS'nicest'
p861
I1
sS'torturing'
p862
I1
sS'rerun'
p863
I1
sS'stages'
p864
I1
sS'temper'
p865
I1
sS'minac'
p866
I1
sS'juvenile'
p867
I2
sS'hurley'
p868
I2
sS'liberal'
p869
I2
sS'sticks'
p870
I4
sS'classic'
p871
I10
sS'toss'
p872
I2
sS'ploddingly'
p873
I1
sS'facilitator'
p874
I1
sS'textbook'
p875
I1
sS'sticky'
p876
I2
sS'proves'
p877
I3
sS'exist'
p878
I2
sS'revitalize'
p879
I1
sS'pileup'
p880
I1
sS'ship'
p881
I4
sS'tooth'
p882
I1
sS'dealer'
p883
I1
sS'sticky-sweet'
p884
I1
sS'oversimplification'
p885
I1
sS'dotted'
p886
I1
sS'floor'
p887
I3
sS'bliss-less'
p888
I1
sS'tossing'
p889
I1
sS'actor'
p890
I7
sS'role'
p891
I8
sS'ambitious'
p892
I5
sS'oscar'
p893
I5
sS'smell'
p894
I2
sS'roll'
p895
I4
sS'low-grade'
p896
I2
sS'molested'
p897
I1
sS'double-cross'
p898
I1
sS'cutesy-pie'
p899
I1
sS'felt'
p900
I6
sS'pummel'
p901
I1
sS'too-long'
p902
I1
sS'deathbed'
p903
I1
sS'palma'
p904
I2
sS'reign'
p905
I1
sS'variable'
p906
I1
sS'transporter'
p907
I1
sS'gets'
p908
I19
sS'explosions'
p909
I2
sS'jones'
p910
I2
sS'warn'
p911
I1
sS'cut-and-paste'
p912
I1
sS'unentertaining'
p913
I1
sS'potato'
p914
I1
sS'assume'
p915
I2
sS'jacket'
p916
I1
sS'grubbing'
p917
I1
sS'time'
p918
I75
sS'push'
p919
I1
sS'treatises'
p920
I1
sS'proficient'
p921
I1
sS'managed'
p922
I1
sS'overplotted'
p923
I1
sS'chain'
p924
I1
sS'perch'
p925
I1
sS'reviewers'
p926
I1
sS'souls'
p927
I1
sS'themes'
p928
I4
sS'crocodile'
p929
I1
sS'avalanche'
p930
I1
sS'mile'
p931
I3
sS'chair'
p932
I1
sS'blade-thin'
p933
I1
sS'midst'
p934
I1
sS'venice'
p935
I1
sS'uneven'
p936
I7
sS'ver'
p937
I1
sS'bottom-rung'
p938
I1
sS'fancies'
p939
I1
sS'technique'
p940
I1
sS'disgusting'
p941
I2
sS'iraqi'
p942
I1
sS'finally'
p943
I9
sS'unpleasant'
p944
I8
sS'authentically'
p945
I1
sS'platitudes'
p946
I2
sS'suffered'
p947
I1
sS'macho'
p948
I1
sS'dragonfly'
p949
I3
sS'over-the-top'
p950
I4
sS'sci-fi'
p951
I4
sS'two-way'
p952
I1
sS'choice'
p953
I1
sS'soapy'
p954
I1
sS'sappy'
p955
I5
sS'serrault'
p956
I1
sS'stays'
p957
I2
sS'join'
p958
I1
sS'exact'
p959
I1
sS'minute'
p960
I2
sS'epic'
p961
I1
sS'judaism'
p962
I1
sS'wide-screen'
p963
I1
sS'tear'
p964
I1
sS'apartheid'
p965
I1
sS'rights'
p966
I1
sS'dia'
p967
I1
sS'cameo'
p968
I1
sS'skewed'
p969
I2
sS'leave'
p970
I8
sS'settle'
p971
I2
sS'excellence'
p972
I1
sS'turgid'
p973
I1
sS'live-action'
p974
I1
sS'team'
p975
I1
sS'dip'
p976
I1
sS'round'
p977
I1
sS'pinheads'
p978
I1
sS'shoe'
p979
I1
sS'porridge'
p980
I2
sS'spiritual'
p981
I4
sS'talked'
p982
I1
sS'ill-conceived'
p983
I3
sS'baffle'
p984
I1
sS'hindered'
p985
I1
sS'inconsequential'
p986
I2
sS'sign'
p987
I5
sS'erotic'
p988
I3
sS'entertained'
p989
I2
sS'eating'
p990
I1
sS'sordid'
p991
I2
sS'twaddle'
p992
I2
sS'majors'
p993
I1
sS'educate'
p994
I1
sS'monster-in-the-'
p995
I1
sS'norris'
p996
I1
sS'filler'
p997
I2
sS'takashi'
p998
I1
sS'leatherbound'
p999
I1
sS'melt'
p1000
I1
sS'wayward'
p1001
I1
sS'suspect'
p1002
I2
sS'hustler'
p1003
I1
sS'freaks'
p1004
I3
sS'swimfan'
p1005
I1
sS'falling'
p1006
I1
sS'celebrates'
p1007
I1
sS'unintentionally'
p1008
I3
sS'creepiest'
p1009
I1
sS'jury'
p1010
I1
sS'graceland'
p1011
I1
sS'niche'
p1012
I1
sS'amalgam'
p1013
I2
sS'makeup'
p1014
I2
sS'torpid'
p1015
I1
sS'subsided'
p1016
I1
sS'french'
p1017
I3
sS'understanding'
p1018
I3
sS'lethally'
p1019
I1
sS'alone'
p1020
I4
sS'along'
p1021
I12
sS'wait'
p1022
I4
sS'box'
p1023
I2
sS'boy'
p1024
I8
sS'redemption'
p1025
I2
sS'brilliant'
p1026
I1
sS'wind-tunnel'
p1027
I1
sS'bow'
p1028
I2
sS'exploitation'
p1029
I2
sS'accomplished'
p1030
I1
sS'ineffective'
p1031
I1
sS'suggestion'
p1032
I1
sS'high-tech'
p1033
I1
sS'myers'
p1034
I1
sS'bod'
p1035
I1
sS'unappealing'
p1036
I1
sS'bearable'
p1037
I1
sS'genuinely'
p1038
I2
sS'teenage'
p1039
I3
sS'inexpressive'
p1040
I1
sS'love'
p1041
I26
sS'hostages'
p1042
I1
sS'merely'
p1043
I4
sS'schlocky'
p1044
I1
sS'marvelous'
p1045
I1
sS'logically'
p1046
I1
sS'fake'
p1047
I3
sS'everybody'
p1048
I3
sS'ungainly'
p1049
I1
sS'crammed'
p1050
I2
sS'wealth'
p1051
I1
sS'working'
p1052
I5
sS'sake'
p1053
I1
sS'positive'
p1054
I1
sS'angry'
p1055
I1
sS'pero'
p1056
I1
sS'filme'
p1057
I1
sS'intense'
p1058
I1
sS'silly-looking'
p1059
I1
sS'critic-proof'
p1060
I1
sS'wondering'
p1061
I3
sS'films'
p1062
I27
sS'believing'
p1063
I1
sS'duds'
p1064
I1
sS'checkout'
p1065
I1
sS'prewarned'
p1066
I1
sS'loving'
p1067
I1
sS'introducing'
p1068
I1
sS'outweighs'
p1069
I1
sS'stinker'
p1070
I2
sS'travesty'
p1071
I2
sS'rorschach'
p1072
I1
sS'condescension'
p1073
I3
sS'acceptable'
p1074
I2
sS'apparent'
p1075
I4
sS'insultingly'
p1076
I1
sS'visual'
p1077
I9
sS'ignorant'
p1078
I1
sS'virtue'
p1079
I1
sS'tolerate'
p1080
I1
sS'effort'
p1081
I11
sS'fly'
p1082
I3
sS'pageant'
p1083
I1
sS'anything'
p1084
I23
sS'purports'
p1085
I1
sS'mayhem'
p1086
I2
sS'melodrama'
p1087
I9
sS'soul'
p1088
I1
sS'believes'
p1089
I1
sS'reviews'
p1090
I1
sS'soup'
p1091
I1
sS'sour'
p1092
I3
sS'values'
p1093
I2
sS'sociological'
p1094
I1
sS'following'
p1095
I3
sS'making'
p1096
I17
sS'detached'
p1097
I1
sS'arrive'
p1098
I1
sS'bites'
p1099
I1
sS'gunfire'
p1100
I1
sS'overproduced'
p1101
I1
sS'claim'
p1102
I1
sS'crazy'
p1103
I8
sS'ordeal'
p1104
I3
sS'character-who-shall-'
p1105
I1
sS'kenneth'
p1106
I2
sS'concocted'
p1107
I1
sS'awesome'
p1108
I1
sS'confused'
p1109
I2
sS'sample'
p1110
I1
sS'battered'
p1111
I1
sS'ter'
p1112
I1
sS'barbershop'
p1113
I1
sS'confuses'
p1114
I1
sS'thirty-three'
p1115
I1
sS'slumming'
p1116
I1
sS'amped-up'
p1117
I1
sS'occurs'
p1118
I1
sS'winter'
p1119
I1
sS'unintentional'
p1120
I2
sS'divided'
p1121
I1
sS'get'
p1122
I35
sS'poking'
p1123
I1
sS'vainly'
p1124
I1
sS'pine'
p1125
I1
sS'till'
p1126
I1
sS'aproveitar'
p1127
I1
sS'pure'
p1128
I6
sS'elephant'
p1129
I1
sS'snaps'
p1130
I1
sS'landmark'
p1131
I1
sS'rigors'
p1132
I1
sS'may'
p1133
I36
sS'max'
p1134
I2
sS'eardrum-dicing'
p1135
I1
sS'spot'
p1136
I1
sS'praiseworthy'
p1137
I1
sS'convincingly'
p1138
I1
sS'turturro'
p1139
I1
sS'designed'
p1140
I5
sS'jean-claude'
p1141
I1
sS'poignancy'
p1142
I2
sS'date'
p1143
I7
sS'partway'
p1144
I1
sS'revealed'
p1145
I1
sS'shockingly'
p1146
I2
sS'brainless'
p1147
I1
sS'egotistical'
p1148
I1
sS'close-up'
p1149
I1
sS'surfing'
p1150
I1
sS'natural'
p1151
I1
sS'outline'
p1152
I1
sS'facile'
p1153
I1
sS'maybe'
p1154
I5
sS'chef'
p1155
I1
sS'bling-bling'
p1156
I1
sS'su'
p1157
I2
sS'tale'
p1158
I17
sS'inhabitants'
p1159
I1
sS'sandbox'
p1160
I1
sS'killers'
p1161
I1
sS'truck'
p1162
I1
sS'silence'
p1163
I1
sS'pollution'
p1164
I1
sS'pulled'
p1165
I3
sS'talk'
p1166
I4
sS'drunken'
p1167
I1
sS'cute'
p1168
I5
sS'innocuous'
p1169
I3
sS'finding-herself'
p1170
I1
sS'noteworthy'
p1171
I1
sS'frittered'
p1172
I1
sS'shaky'
p1173
I2
sS'wishing'
p1174
I1
sS'kong'
p1175
I2
sS'professors'
p1176
I1
sS'course'
p1177
I2
sS'episodes'
p1178
I3
sS'experiments'
p1179
I1
sS'cuts'
p1180
I1
sS'adopt'
p1181
I1
sS'jock'
p1182
I1
sS'derive'
p1183
I2
sS'police'
p1184
I1
sS'took'
p1185
I3
sS'lackluster'
p1186
I3
sS'interesting'
p1187
I30
sS'toro'
p1188
I1
sS'jim'
p1189
I1
sS'methodology'
p1190
I1
sS'sascha'
p1191
I1
sS'disconcertingly'
p1192
I1
sS'attraction'
p1193
I2
sS'suspicion'
p1194
I1
sS'mediocridade'
p1195
I1
sS'oversize'
p1196
I1
sS'main'
p1197
I3
sS'decades'
p1198
I2
sS'brainer'
p1199
I1
sS'instantly'
p1200
I2
sS'conveying'
p1201
I1
sS'ya-ya'
p1202
I1
sS'kilmer'
p1203
I1
sS'impulses'
p1204
I2
sS'smarter'
p1205
I1
sS'killer'
p1206
I4
sS'well-meant'
p1207
I1
sS'indigenous'
p1208
I1
sS'records'
p1209
I1
sS'touching'
p1210
I2
sS'workmanlike'
p1211
I1
sS'aspirations'
p1212
I2
sS'scorsese'
p1213
I3
sS'pell-mell'
p1214
I1
sS'killed'
p1215
I1
sS'aficionados'
p1216
I1
sS'shouted'
p1217
I1
sS'beach'
p1218
I1
sS'amateurish'
p1219
I5
sS'entertaining'
p1220
I8
sS'rock'
p1221
I4
sS'quarter'
p1222
I2
sS'self-indulgence'
p1223
I2
sS'surfeit'
p1224
I1
sS'sopranos'
p1225
I2
sS'cor-blimey-luv-a-duck'
p1226
I1
sS'artifice'
p1227
I1
sS'conventions'
p1228
I2
sS'unlock'
p1229
I1
sS'preaching'
p1230
I1
sS'sexually'
p1231
I1
sS'girl'
p1232
I9
sS'description'
p1233
I1
sS'giddy'
p1234
I1
sS'emerges'
p1235
I1
sS'jackson'
p1236
I3
sS'acting-workshop'
p1237
I1
sS'astray'
p1238
I1
sS'seriously'
p1239
I6
sS'stupid'
p1240
I14
sS'hit-hungry'
p1241
I1
sS'sainthood'
p1242
I1
sS'insecure'
p1243
I1
sS'bordering'
p1244
I1
sS'live-honed'
p1245
I1
sS'monster'
p1246
I4
sS'impressed'
p1247
I1
sS'siege'
p1248
I1
sS'hefty'
p1249
I1
sS'million'
p1250
I1
sS'quite'
p1251
I21
sS'prostituted'
p1252
I1
sS'bumps'
p1253
I1
sS'complicated'
p1254
I2
sS'intensely'
p1255
I1
sS'anchor'
p1256
I1
sS'unnamed'
p1257
I1
sS'bagatelle'
p1258
I1
sS'two-hour-and-fifteen-minute'
p1259
I1
sS'advance'
p1260
I3
sS'underwear'
p1261
I1
sS'disguised'
p1262
I1
sS'dunno'
p1263
I1
sS'modest'
p1264
I2
sS'grinder'
p1265
I1
sS'thing'
p1266
I35
sS'massive'
p1267
I1
sS'camerawork'
p1268
I1
sS'assuredly'
p1269
I1
sS'jumbled'
p1270
I1
sS'first'
p1271
I24
sS'emotion'
p1272
I1
sS'cheese'
p1273
I3
sS'zzzzzzzzz'
p1274
I1
sS'saving'
p1275
I3
sS'clause'
p1276
I4
sS'potter'
p1277
I1
sS'ong'
p1278
I1
sS'one'
p1279
I143
sS'hopes'
p1280
I1
sS'americans'
p1281
I1
sS'punishable'
p1282
I1
sS'spanish'
p1283
I1
sS'carry'
p1284
I1
sS'sounds'
p1285
I2
sS'open'
p1286
I1
sS'cheesy'
p1287
I4
sS'plotless'
p1288
I1
sS'city'
p1289
I6
sS'little'
p1290
I62
sS'stifles'
p1291
I1
sS'personalities'
p1292
I1
sS'murky'
p1293
I4
sS'bite'
p1294
I3
sS'parallel'
p1295
I1
sS'anyone'
p1296
I11
sS'encourages'
p1297
I1
sS'stuffed'
p1298
I1
sS'realization'
p1299
I1
sS'bits'
p1300
I4
sS'williams'
p1301
I3
sS'subplot'
p1302
I1
sS'slasher'
p1303
I6
sS'eyes'
p1304
I5
sS'labors'
p1305
I1
sS'allegedly'
p1306
I2
sS'meet-cute'
p1307
I1
sS'accurately'
p1308
I1
sS'snatch'
p1309
I1
sS'padding'
p1310
I3
sS'ridiculous'
p1311
I7
sS'leplouff'
p1312
I1
sS'butt'
p1313
I1
sS'fooled'
p1314
I1
sS'doddering'
p1315
I1
sS'third'
p1316
I4
sS'depressed'
p1317
I1
sS'favors'
p1318
I3
sS'goldmember'
p1319
I2
sS'folly'
p1320
I1
sS'non-stop'
p1321
I2
sS'crossroads'
p1322
I1
sS'so-so'
p1323
I1
sS'sabotaged'
p1324
I1
sS'future'
p1325
I5
sS'magnolia'
p1326
I1
sS'asleep'
p1327
I2
sS'gigantic'
p1328
I1
sS'strolls'
p1329
I1
sS'damned'
p1330
I8
sS'prospect'
p1331
I3
sS'buries'
p1332
I1
sS'illness'
p1333
I1
sS'dollop'
p1334
I1
sS'stylings'
p1335
I1
sS'sam'
p1336
I1
sS'mundane'
p1337
I2
sS'topics'
p1338
I1
sS'dass'
p1339
I1
sS'turned'
p1340
I6
sS'locations'
p1341
I1
sS'sad'
p1342
I7
sS'questions'
p1343
I2
sS'crudeness'
p1344
I1
sS'say'
p1345
I17
sS'comedian'
p1346
I1
sS'buried'
p1347
I2
sS'lurking'
p1348
I1
sS'allen'
p1349
I3
sS'dismissive'
p1350
I1
sS'kevin'
p1351
I5
sS'elsewhere'
p1352
I1
sS'serials'
p1353
I1
sS'prefeminist'
p1354
I1
sS'zoe'
p1355
I1
sS'sanctimonious'
p1356
I2
sS'translate'
p1357
I1
sS'mind-numbingly'
p1358
I2
sS'aside'
p1359
I3
sS'shocked'
p1360
I2
sS'note'
p1361
I1
sS'rumination'
p1362
I1
sS'potential'
p1363
I7
sS'take'
p1364
I17
sS'creatively'
p1365
I1
sS'green'
p1366
I5
sS'hedonistic'
p1367
I1
sS'pranks'
p1368
I2
sS'gibney'
p1369
I1
sS'channel'
p1370
I1
sS'ultimate'
p1371
I3
sS'colgate'
p1372
I1
sS'ironically'
p1373
I3
sS'retina'
p1374
I1
sS'amiable'
p1375
I2
sS'theatre'
p1376
I1
sS'opposite'
p1377
I2
sS'knew'
p1378
I1
sS'fails'
p1379
I16
sS'paid'
p1380
I4
sS'insanity'
p1381
I1
sS'rehearsal'
p1382
I1
sS'assault'
p1383
I2
sS'rigidly'
p1384
I1
sS'printed'
p1385
I1
sS'sheets'
p1386
I1
sS'remarks'
p1387
I1
sS'supremely'
p1388
I1
sS'well-intentioned'
p1389
I4
sS'queens'
p1390
I2
sS'self-parody'
p1391
I1
sS'lawn'
p1392
I1
sS'gags'
p1393
I14
sS'surprising'
p1394
I3
sS'fills'
p1395
I1
sS'montage'
p1396
I1
sS'athletes'
p1397
I1
sS'average'
p1398
I4
sS'drive'
p1399
I1
sS'fillers'
p1400
I1
sS'butchered'
p1401
I1
sS'stockings'
p1402
I1
sS'salt'
p1403
I2
sS'review'
p1404
I1
sS'repeatedly'
p1405
I3
sS'rating'
p1406
I3
sS'walking'
p1407
I1
sS'shot'
p1408
I6
sS'show'
p1409
I18
sS'contemporary'
p1410
I1
sS'merit'
p1411
I1
sS'elevate'
p1412
I1
sS'bright'
p1413
I2
sS'executed'
p1414
I2
sS'inconsistent'
p1415
I1
sS'corner'
p1416
I3
sS'aggressive'
p1417
I1
sS'consegue'
p1418
I1
sS'savviest'
p1419
I1
sS'enthusiast'
p1420
I1
sS'slow'
p1421
I8
sS'nice'
p1422
I2
sS'punchy'
p1423
I1
sS'dick'
p1424
I1
sS'enough'
p1425
I46
sS'dull'
p1426
I26
sS'aimlessly'
p1427
I2
sS'tears'
p1428
I1
sS'going'
p1429
I19
sS'black'
p1430
I7
sS'slob'
p1431
I1
sS'outrage'
p1432
I1
sS'chimpanzees'
p1433
I1
sS'pegged'
p1434
I1
sS'nouvelle'
p1435
I1
sS'directed'
p1436
I9
sS'graceless'
p1437
I1
sS'ensnare'
p1438
I1
sS'wheezy'
p1439
I1
sS'psychiatrist'
p1440
I1
sS'hostage'
p1441
I1
sS'cursing'
p1442
I1
sS'simplistic'
p1443
I8
sS'hailed'
p1444
I1
sS'nearly'
p1445
I15
sS'distinctly'
p1446
I1
sS'enjoys'
p1447
I2
sS'gel'
p1448
I3
sS'prime'
p1449
I3
sS'artist'
p1450
I4
sS'hinges'
p1451
I2
sS'absurdly'
p1452
I2
sS'morning'
p1453
I2
sS'miles'
p1454
I2
sS'roger'
p1455
I5
sS'source'
p1456
I3
sS'bombs'
p1457
I1
sS'amused'
p1458
I1
sS'worries'
p1459
I1
sS'fortify'
p1460
I1
sS'finishing'
p1461
I1
sS'marred'
p1462
I1
sS'worrying'
p1463
I1
sS'vision'
p1464
I2
sS'tux'
p1465
I1
sS'morose'
p1466
I1
sS'ricci'
p1467
I1
sS'zigzag'
p1468
I1
sS'seat'
p1469
I2
sS'relative'
p1470
I2
sS'gangster'
p1471
I4
sS'intoxicating'
p1472
I1
sS'permeates'
p1473
I2
sS'satisfying'
p1474
I4
sS'steadfast'
p1475
I1
sS'telegraphing'
p1476
I1
sS'label'
p1477
I1
sS'behind'
p1478
I6
sS'preemptive'
p1479
I1
sS'ostensible'
p1480
I1
sS'teens'
p1481
I4
sS'reading'
p1482
I4
sS'across'
p1483
I6
sS'screed'
p1484
I1
sS'gives'
p1485
I11
sS'vertical'
p1486
I2
sS'screen'
p1487
I28
sS'jr'
p1488
I2
sS'killing'
p1489
I1
sS'countenance'
p1490
I1
sS'jovial'
p1491
I1
sS'commodified'
p1492
I1
sS'invite'
p1493
I1
sS'highlight'
p1494
I2
sS'moviemaking'
p1495
I1
sS'enthralling'
p1496
I1
sS'spark'
p1497
I4
sS'unencouraging'
p1498
I1
sS'lopez'
p1499
I2
sS'undermine'
p1500
I1
sS'tug'
p1501
I1
sS'motivations'
p1502
I1
sS'puerile'
p1503
I1
sS'farcical'
p1504
I1
sS'tuck'
p1505
I1
sS'many'
p1506
I42
sS'jokers'
p1507
I1
sS'ineptly'
p1508
I1
sS'real-life'
p1509
I2
sS'uninspiring'
p1510
I1
sS'sketchy'
p1511
I1
sS'tout'
p1512
I2
sS'dated'
p1513
I2
sS'concentrates'
p1514
I1
sS'dwellers'
p1515
I1
sS'franchise'
p1516
I8
sS'jean-luc'
p1517
I1
sS'stretches'
p1518
I2
sS'compels'
p1519
I1
sS'self-regarding'
p1520
I1
sS'cedric'
p1521
I1
sS'stretched'
p1522
I3
sS'pile-ups'
p1523
I1
sS'writing'
p1524
I4
sS'considers'
p1525
I1
sS'boat'
p1526
I1
sS'estrogen'
p1527
I1
sS'caring'
p1528
I2
sS'combines'
p1529
I1
sS'submerging'
p1530
I1
sS'capable'
p1531
I2
sS'stretch'
p1532
I1
sS'west'
p1533
I1
sS'vacation'
p1534
I1
sS'gooding'
p1535
I2
sS'mark'
p1536
I2
sS'needlessly'
p1537
I1
sS'workshop'
p1538
I2
sS'combined'
p1539
I1
sS'mars'
p1540
I1
sS'compelling'
p1541
I14
sS'borders'
p1542
I2
sS'mary'
p1543
I2
sS'hilarity'
p1544
I1
sS'potshots'
p1545
I1
sS'enable'
p1546
I1
sS'graveyard'
p1547
I1
sS'chan'
p1548
I4
sS'thousand'
p1549
I2
sS'personas'
p1550
I1
sS'sort'
p1551
I12
sS'stifling'
p1552
I1
sS'observe'
p1553
I1
sS'life-affirming'
p1554
I2
sS'bmw'
p1555
I1
sS'former'
p1556
I3
sS'undermines'
p1557
I1
sS'sound'
p1558
I6
sS'queasy'
p1559
I1
sS'stacked'
p1560
I1
sS'gimmicky'
p1561
I2
sS'profane'
p1562
I2
sS'prominence'
p1563
I1
sS'engineering'
p1564
I1
sS'successes'
p1565
I1
sS'tragedy'
p1566
I6
sS'warning'
p1567
I2
sS'stop-and-start'
p1568
I1
sS'avon'
p1569
I1
sS'situation'
p1570
I5
sS'endured'
p1571
I1
sS'margin'
p1572
I1
sS'denizens'
p1573
I1
sS'unlikeable'
p1574
I2
sS'cloyingly'
p1575
I1
sS'brow'
p1576
I1
sS'engaged'
p1577
I1
sS'zucker'
p1578
I1
sS'dubious'
p1579
I2
sS'according'
p1580
I2
sS'blah'
p1581
I1
sS'sudden'
p1582
I3
sS'purportedly'
p1583
I1
sS'pizazz'
p1584
I1
sS'obnoxious'
p1585
I4
sS'sayles'
p1586
I1
sS'movements'
p1587
I2
sS'pap'
p1588
I2
sS'binary'
p1589
I1
sS'different'
p1590
I4
sS'pat'
p1591
I3
sS'combination'
p1592
I4
sS'pax'
p1593
I1
sS'fistfights'
p1594
I1
sS'message-mongering'
p1595
I1
sS'perpetually'
p1596
I1
sS'surveillance'
p1597
I1
sS'easter-egg-colored'
p1598
I1
sS'underestimate'
p1599
I1
sS'damon'
p1600
I2
sS'stepped'
p1601
I1
sS'downs'
p1602
I1
sS'pan'
p1603
I1
sS'disappointment'
p1604
I2
sS'visually'
p1605
I6
sS'extended'
p1606
I1
sS'devolves'
p1607
I2
sS'remake'
p1608
I6
sS'running'
p1609
I7
sS'harris'
p1610
I2
sS'totally'
p1611
I3
sS'embarrassingly'
p1612
I1
sS'mohawk'
p1613
I1
sS'largely'
p1614
I7
sS'flies'
p1615
I2
sS'vacant'
p1616
I1
sS'oppositions'
p1617
I1
sS'ooky-spookies'
p1618
I1
sS'pacing'
p1619
I7
sS'stainton'
p1620
I1
sS'animatronic'
p1621
I1
sS'costs'
p1622
I1
sS'pummels'
p1623
I1
sS'self-consciously'
p1624
I1
sS'trains'
p1625
I1
sS'grumpy'
p1626
I1
sS'parody'
p1627
I4
sS'summer'
p1628
I4
sS'recycles'
p1629
I1
sS'among'
p1630
I1
sS'fears'
p1631
I2
sS'elysian'
p1632
I2
sS'wreaks'
p1633
I1
sS'rest'
p1634
I5
sS'imprint'
p1635
I1
sS'recycled'
p1636
I4
sS'aspect'
p1637
I1
sS'exhuming'
p1638
I1
sS'serious-minded'
p1639
I1
sS'low-tech'
p1640
I1
sS'dipped'
p1641
I1
sS'psyches'
p1642
I1
sS'rental'
p1643
I4
sS'science-fiction'
p1644
I1
sS'pile'
p1645
I4
sS'grating'
p1646
I1
sS'ebullient'
p1647
I1
sS'pot'
p1648
I2
sS'shapeless'
p1649
I3
sS'aspects'
p1650
I1
sS'around'
p1651
I15
sS'flim-flam'
p1652
I1
sS'unveil'
p1653
I1
sS'dark'
p1654
I15
sS'chainsaw'
p1655
I1
sS'leaner'
p1656
I1
sS'top-billed'
p1657
I1
sS'pop'
p1658
I4
sS'mom'
p1659
I1
sS'vacuum'
p1660
I2
sS'world'
p1661
I10
sS'aiming'
p1662
I1
sS'disappointed'
p1663
I3
sS'vague'
p1664
I4
sS'dare'
p1665
I1
sS'clan'
p1666
I1
sS'inoffensive'
p1667
I4
sS'christina'
p1668
I1
sS'acquainted'
p1669
I1
sS'adams'
p1670
I3
sS'clad'
p1671
I2
sS'inexplicably'
p1672
I1
sS'chamber'
p1673
I3
sS'audience'
p1674
I29
sS'nickleby'
p1675
I2
sS'laughing'
p1676
I1
sS'robbery'
p1677
I1
sS'served'
p1678
I3
sS'passionate'
p1679
I1
sS'stationary'
p1680
I1
sS'get-out'
p1681
I1
sS'sparkles'
p1682
I1
sS'climactic'
p1683
I1
sS'jews'
p1684
I1
sS'dilbert'
p1685
I1
sS'pronounce'
p1686
I1
sS'muddled'
p1687
I3
sS'meanders'
p1688
I1
sS'elements'
p1689
I9
sS'brits'
p1690
I1
sS'images'
p1691
I6
sS'racial'
p1692
I4
sS'thinks'
p1693
I4
sS'obviousness'
p1694
I1
sS'dimensions'
p1695
I1
sS'superficiality'
p1696
I3
sS'memories'
p1697
I2
sS'tube'
p1698
I2
sS'spookiness'
p1699
I1
sS'overly'
p1700
I3
sS'tiresomely'
p1701
I2
sS'tots'
p1702
I1
sS'tailor-made'
p1703
I1
sS'critical'
p1704
I2
sS'exit'
p1705
I2
sS'lunar'
p1706
I1
sS'claustrophobic'
p1707
I1
sS'solemn'
p1708
I1
sS'vistas'
p1709
I1
sS'considering'
p1710
I3
sS'holiday-season'
p1711
I1
sS'scientific'
p1712
I1
sS'power'
p1713
I7
sS'seconds'
p1714
I2
sS'retains'
p1715
I1
sS'c'
p1716
I3
sS'notable'
p1717
I1
sS'iconic'
p1718
I1
sS'out-of-kilter'
p1719
I1
sS'broken'
p1720
I3
sS'forbearing'
p1721
I1
sS'bravado'
p1722
I1
sS'throwback'
p1723
I1
sS'released'
p1724
I4
sS'giggle'
p1725
I1
sS'opium'
p1726
I1
sS'origins'
p1727
I1
sS'package'
p1728
I1
sS'lighted'
p1729
I1
sS'thinly-conceived'
p1730
I1
sS'industry'
p1731
I2
sS'serviceability'
p1732
I1
sS'favorite'
p1733
I1
sS'meaning'
p1734
I1
sS'mixer'
p1735
I1
sS'side'
p1736
I8
sS'arty'
p1737
I1
sS'masterpieces'
p1738
I1
sS'sadistic'
p1739
I3
sS'lofty'
p1740
I1
sS'metaphors'
p1741
I2
sS'dilettante'
p1742
I1
sS'filmmakers'
p1743
I13
sS'fertile'
p1744
I1
sS'curling'
p1745
I2
sS'accent'
p1746
I1
sS'two-day'
p1747
I1
sS'tortuous'
p1748
I1
sS'legged'
p1749
I2
sS'fritters'
p1750
I1
sS'wilde'
p1751
I1
sS'teen-gang'
p1752
I1
sS'parties'
p1753
I1
sS'bargain-basement'
p1754
I2
sS'wade'
p1755
I1
sS'leblanc'
p1756
I1
sS'technically'
p1757
I2
sS'vaporize'
p1758
I1
sS'substitutable'
p1759
I1
sS'profanities'
p1760
I1
sS'totalitarian'
p1761
I1
sS'hey'
p1762
I3
sS'restrained'
p1763
I1
sS'rumbles'
p1764
I1
sS'mindless'
p1765
I6
sS'futile'
p1766
I1
sS'sealed'
p1767
I1
sS'upstaged'
p1768
I1
sS'colorful'
p1769
I3
sS'downer'
p1770
I3
sS'ago'
p1771
I6
sS'complete'
p1772
I9
sS'fanatic'
p1773
I1
sS'mystification'
p1774
I1
sS'last'
p1775
I18
sS'prurient'
p1776
I1
sS'sophisticated'
p1777
I3
sS'hamfisted'
p1778
I1
sS'plucks'
p1779
I1
sS'gore'
p1780
I2
sS'survived'
p1781
I1
sS'prep-school'
p1782
I2
sS'technologies'
p1783
I1
sS'skins'
p1784
I2
sS'featuring'
p1785
I4
sS'handsome'
p1786
I1
sS'pull'
p1787
I1
sS'rush'
p1788
I2
sS'romantic'
p1789
I14
sS'monopoly'
p1790
I1
sS'hardly'
p1791
I7
sS'tripe'
p1792
I1
sS'bottomlessly'
p1793
I1
sS'putters'
p1794
I1
sS'treasure'
p1795
I1
sS'dirty'
p1796
I1
sS'mopping'
p1797
I1
sS'dubbing'
p1798
I1
sS'pulp'
p1799
I2
sS'affection'
p1800
I2
sS'darker'
p1801
I1
sS'gone'
p1802
I7
sS'wendigo'
p1803
I1
sS'gong'
p1804
I1
sS'money'
p1805
I5
sS'fright'
p1806
I1
sS'geriatric'
p1807
I1
sS'carvey'
p1808
I2
sS'ah'
p1809
I2
sS'accents'
p1810
I3
sS'hard-core'
p1811
I1
sS'al'
p1812
I1
sS'deep'
p1813
I2
sS'general'
p1814
I3
sS'happenstance'
p1815
I1
sS'deem'
p1816
I1
sS'ensuing'
p1817
I1
sS'follow-up'
p1818
I1
sS'aids'
p1819
I1
sS'watched'
p1820
I1
sS'cameo-packed'
p1821
I1
sS'jargon'
p1822
I1
sS'junk-calorie'
p1823
I1
sS'film'
p1824
I227
sS'fill'
p1825
I1
sS'tedious'
p1826
I10
sS'spice'
p1827
I2
sS'sanguine'
p1828
I1
sS'disaffected-indie-film'
p1829
I1
sS'field'
p1830
I2
sS'unparalleled'
p1831
I1
sS'incomprehensible'
p1832
I3
sS'contemporaries'
p1833
I1
sS'unturned'
p1834
I2
sS'computer-generated'
p1835
I3
sS'stilted'
p1836
I4
sS'terri'
p1837
I1
sS'students'
p1838
I1
sS'mccoist'
p1839
I1
sS'forgettable'
p1840
I5
sS'narrative'
p1841
I14
sS'self-'
p1842
I1
sS'gifts'
p1843
I1
sS'important'
p1844
I4
sS'dramas'
p1845
I3
sS'forgettably'
p1846
I1
sS'terry'
p1847
I1
sS'chris'
p1848
I2
sS'revolve'
p1849
I1
sS'mishmash'
p1850
I1
sS'awkwardly'
p1851
I3
sS'imminently'
p1852
I1
sS'remote'
p1853
I1
sS'tricks'
p1854
I4
sS'mask'
p1855
I1
sS'persona'
p1856
I2
sS'dramatic'
p1857
I14
sS'u'
p1858
I3
sS'adam'
p1859
I6
sS'resembles'
p1860
I3
sS'wake'
p1861
I2
sS'sensibility'
p1862
I1
sS'resolution'
p1863
I1
sS'original'
p1864
I21
sS'concubine'
p1865
I1
sS'liar'
p1866
I2
sS'consider'
p1867
I7
sS'vile'
p1868
I1
sS'crucial'
p1869
I3
sS'beware'
p1870
I2
sS'cresting'
p1871
I1
sS'dollar'
p1872
I1
sS'sunk'
p1873
I2
sS'talky'
p1874
I4
sS'chabrol'
p1875
I1
sS'talks'
p1876
I1
sS'dogged'
p1877
I1
sS'expressions'
p1878
I1
sS'children'
p1879
I11
sS'reluctant'
p1880
I1
sS'foot-dragging'
p1881
I1
sS'taxicab'
p1882
I1
sS'number'
p1883
I4
sS'tinsel'
p1884
I1
sS'hunting'
p1885
I1
sS'tv'
p1886
I15
sS'tail'
p1887
I1
sS'bilked'
p1888
I1
sS'smile'
p1889
I1
sS'hideous'
p1890
I1
sS'sychowski'
p1891
I1
sS'prechewed'
p1892
I1
sS'returned'
p1893
I1
sS'returning'
p1894
I2
sS'overdone'
p1895
I1
sS'rosily'
p1896
I1
sS'candid'
p1897
I1
sS'diary'
p1898
I1
sS'fall'
p1899
I2
sS'trails'
p1900
I1
sS'difference'
p1901
I1
sS'psyche'
p1902
I1
sS'mild'
p1903
I5
sS'pbs'
p1904
I1
sS'accompanying'
p1905
I2
sS'shenanigans'
p1906
I1
sS'palaver'
p1907
I1
sS'heist'
p1908
I1
sS'arts'
p1909
I5
sS'outtakes'
p1910
I1
sS'large'
p1911
I5
sS'deja'
p1912
I1
sS'sand'
p1913
I1
sS'exploitive'
p1914
I1
sS'harry'
p1915
I1
sS'small'
p1916
I6
sS'fluent'
p1917
I1
sS'sank'
p1918
I1
sS'charlize'
p1919
I1
sS'abbreviated'
p1920
I2
sS'titled'
p1921
I3
sS'foundation'
p1922
I1
sS'age-inspired'
p1923
I1
sS'maggio'
p1924
I1
sS'earnestness'
p1925
I1
sS'prevents'
p1926
I1
sS'past'
p1927
I10
sS'burger'
p1928
I2
sS'zero'
p1929
I2
sS'customarily'
p1930
I1
sS'perspective'
p1931
I1
sS'pass'
p1932
I5
sS'witch-'
p1933
I1
sS'breckin'
p1934
I2
sS'affable'
p1935
I1
sS'squanders'
p1936
I1
sS'gasbag'
p1937
I1
sS'trick'
p1938
I4
sS'material'
p1939
I27
sS'abc'
p1940
I1
sS'favor'
p1941
I3
sS'section'
p1942
I2
sS'diaz'
p1943
I1
sS'tribute'
p1944
I2
sS'everlasting'
p1945
I1
sS'public'
p1946
I4
sS'contrast'
p1947
I1
sS'revealing'
p1948
I1
sS'tattoos'
p1949
I1
sS'full'
p1950
I23
sS'hash'
p1951
I1
sS'skeeved'
p1952
I1
sS'promising'
p1953
I5
sS'diapers'
p1954
I1
sS'portrays'
p1955
I1
sS'revenge'
p1956
I3
sS'hours'
p1957
I9
sS'scum'
p1958
I1
sS'disastrous'
p1959
I1
sS'nolden'
p1960
I1
sS'unrewarding'
p1961
I1
sS'slapping'
p1962
I1
sS'search'
p1963
I1
sS'stretching'
p1964
I1
sS'jackie'
p1965
I1
sS'experience'
p1966
I10
sS'prior'
p1967
I1
sS'travails'
p1968
I1
sS'putty'
p1969
I1
sS'uncharted'
p1970
I1
sS'social'
p1971
I8
sS'action'
p1972
I31
sS'narrow'
p1973
I1
sS'sweetness'
p1974
I1
sS'pathological'
p1975
I1
sS'skippable'
p1976
I1
sS'whimsical'
p1977
I1
sS'via'
p1978
I3
sS'followed'
p1979
I2
sS'cowardly'
p1980
I1
sS'vin'
p1981
I1
sS'revelled'
p1982
I1
sS'thought'
p1983
I11
sS'sadism'
p1984
I1
sS'establish'
p1985
I1
sS'all-too-familiar'
p1986
I1
sS'nuevas'
p1987
I1
sS'score'
p1988
I2
sS'trips'
p1989
I1
sS'plastered'
p1990
I1
sS'uniqueness'
p1991
I1
sS'splash'
p1992
I1
sS'gorgeous'
p1993
I2
sS'point-and-shoot'
p1994
I1
sS'sincere'
p1995
I6
sS'teen'
p1996
I6
sS'much-needed'
p1997
I1
sS'company'
p1998
I4
sS'one-sided'
p1999
I3
sS'brooms'
p2000
I2
sS'lameness'
p2001
I1
sS'leavened'
p2002
I1
sS'particular'
p2003
I5
sS'destin'
p2004
I1
sS'town'
p2005
I1
sS'willfully'
p2006
I1
sS'keeping'
p2007
I1
sS'enlightenment'
p2008
I1
sS'hour'
p2009
I6
sS'strain'
p2010
I3
sS'science'
p2011
I1
sS'sucks'
p2012
I2
sS'long-winded'
p2013
I1
sS'frustratingly'
p2014
I2
sS'mall'
p2015
I1
sS'del'
p2016
I1
sS'electoral'
p2017
I1
sS'taut'
p2018
I1
sS'learn'
p2019
I4
sS'pokemon'
p2020
I6
sS'male'
p2021
I3
sS'pick'
p2022
I1
sS'beautiful'
p2023
I2
sS'compare'
p2024
I1
sS'bogs'
p2025
I1
sS'rodriguez'
p2026
I1
sS'share'
p2027
I3
sS'stocked'
p2028
I1
sS'collision'
p2029
I1
sS'wal-mart'
p2030
I1
sS'numbers'
p2031
I7
sS'sense'
p2032
I23
sS'schoolgirl'
p2033
I1
sS'sharp'
p2034
I3
sS'dress'
p2035
I2
sS'huge'
p2036
I4
sS'respective'
p2037
I1
sS'clint'
p2038
I1
sS'awkward'
p2039
I6
sS'rye'
p2040
I1
sS'hugh'
p2041
I2
sS'fracasso'
p2042
I1
sS'fame'
p2043
I2
sS'stir'
p2044
I1
sS'ensemble'
p2045
I5
sS'heartwarmingly'
p2046
I1
sS'plant'
p2047
I1
sS'mendes'
p2048
I2
sS'advice'
p2049
I3
sS'variant'
p2050
I1
sS'sophistication'
p2051
I2
sS'soundtrack'
p2052
I5
sS'blood'
p2053
I1
sS'coming'
p2054
I8
sS'pyschological'
p2055
I1
sS'mad-libs'
p2056
I1
sS'authentic'
p2057
I1
sS'bleak'
p2058
I2
sS'refuse'
p2059
I1
sS'imagery'
p2060
I1
sS'brady'
p2061
I1
sS'orchard'
p2062
I1
sS'resemble'
p2063
I2
sS'bid'
p2064
I1
sS'twisting'
p2065
I1
sS'rowdy'
p2066
I1
sS'deuces'
p2067
I2
sS'larceny'
p2068
I1
sS'wrench'
p2069
I1
sS'overcooked'
p2070
I1
sS'pleasure'
p2071
I6
sS'playing'
p2072
I5
sS'opts'
p2073
I2
sS'circularity'
p2074
I1
sS'passages'
p2075
I1
sS'mexican'
p2076
I1
sS'surrealist'
p2077
I1
sS'heartfelt'
p2078
I1
sS'fraser'
p2079
I1
sS'brit'
p2080
I1
sS'resorts'
p2081
I2
sS'paper'
p2082
I5
sS'brio'
p2083
I2
sS'signs'
p2084
I5
sS'existence'
p2085
I2
sS'sequels'
p2086
I3
sS'suffer'
p2087
I2
sS'winger'
p2088
I1
sS'zippy'
p2089
I1
sS'comedic'
p2090
I5
sS'thrilling'
p2091
I4
sS'buttercup'
p2092
I1
sS'deeds'
p2093
I1
sS'sensationalize'
p2094
I1
sS'late'
p2095
I4
sS'dolly'
p2096
I1
sS'bummer'
p2097
I1
sS'nifty'
p2098
I1
sS'followers'
p2099
I1
sS'lies'
p2100
I1
sS'crawls'
p2101
I1
sS'arguments'
p2102
I1
sS'hurting'
p2103
I1
sS'good'
p2104
I64
sS'seeking'
p2105
I1
sS'died'
p2106
I2
sS'sucker'
p2107
I2
sS'males'
p2108
I1
sS'smile-button'
p2109
I1
sS'afflicts'
p2110
I1
sS'walls'
p2111
I3
sS'swill'
p2112
I1
sS'dealing'
p2113
I4
sS'struggling'
p2114
I1
sS'subtitles'
p2115
I2
sS'sucked'
p2116
I1
sS'mystery'
p2117
I11
sS'easily'
p2118
I10
sS'deteriorates'
p2119
I1
sS'pregnant'
p2120
I1
sS'always'
p2121
I5
sS'puzzle'
p2122
I1
sS'truths'
p2123
I2
sS'labeling'
p2124
I1
sS'intermediary'
p2125
I1
sS'malone'
p2126
I1
sS'right-hand'
p2127
I1
sS'goofy'
p2128
I5
sS'overacted'
p2129
I1
sS'moronic'
p2130
I2
sS'boisterous'
p2131
I1
sS'found'
p2132
I10
sS'shocking'
p2133
I1
sS'notes'
p2134
I1
sS'exquisite'
p2135
I2
sS'status'
p2136
I1
sS'harm'
p2137
I2
sS'everyone'
p2138
I7
sS'mental'
p2139
I1
sS'meaningless'
p2140
I1
sS'house'
p2141
I8
sS'energy'
p2142
I6
sS'hard'
p2143
I30
sS'reduce'
p2144
I1
sS'idea'
p2145
I19
sS'engaging'
p2146
I7
sS'girlish'
p2147
I1
sS'egomaniac'
p2148
I1
sS'connect'
p2149
I4
sS'doses'
p2150
I2
sS'blues'
p2151
I2
sS'scribe'
p2152
I1
sS'allusions'
p2153
I1
sS'really'
p2154
I40
sS'street-realist'
p2155
I1
sS'inelegant'
p2156
I1
sS'perry'
p2157
I1
sS'psychology'
p2158
I3
sS'childish'
p2159
I2
sS'research'
p2160
I1
sS'misses'
p2161
I4
sS'mystic'
p2162
I1
sS'romantic-comedy'
p2163
I1
sS'tiresome'
p2164
I3
sS'plotting'
p2165
I4
sS'salute'
p2166
I1
sS'belief'
p2167
I1
sS'pathetic'
p2168
I3
sS'lawrence'
p2169
I2
sS'porcelain'
p2170
I1
sS'road-trip'
p2171
I2
sS'geared'
p2172
I1
sS'pasolini'
p2173
I1
sS'qualify'
p2174
I2
sS'conditioning'
p2175
I1
sS'members'
p2176
I1
sS'imagine'
p2177
I12
sS'well-nigh'
p2178
I1
sS'rises'
p2179
I6
sS'beginning'
p2180
I2
sS'definition'
p2181
I1
sS'looseness'
p2182
I1
sS'misogyny'
p2183
I1
sS'benefits'
p2184
I1
sS'english'
p2185
I1
sS'needing'
p2186
I1
sS'fincher'
p2187
I1
sS'diversion'
p2188
I2
sS'audacity'
p2189
I2
sS'resembling'
p2190
I2
sS'w'
p2191
I2
sS'anecdote'
p2192
I1
sS'testament'
p2193
I2
sS'existential'
p2194
I2
sS'walsh'
p2195
I3
sS'kiarostami'
p2196
I1
sS'euphemism'
p2197
I1
sS'major'
p2198
I5
sS'self-reflection'
p2199
I1
sS'trekkie'
p2200
I1
sS'stabs'
p2201
I1
sS'wilder'
p2202
I4
sS'mistakenly'
p2203
I1
sS'mimetic'
p2204
I1
sS'inauthentic'
p2205
I2
sS'done'
p2206
I14
sS'neglects'
p2207
I1
sS'unexplained'
p2208
I1
sS'heads'
p2209
I2
sS'jet'
p2210
I1
sS'indulgent'
p2211
I2
sS'twenty'
p2212
I1
sS'smoothes'
p2213
I1
sS'smoother'
p2214
I1
sS'moderately'
p2215
I1
sS'heady'
p2216
I2
sS'cartoon'
p2217
I4
sS'obligatory'
p2218
I1
sS'paint'
p2219
I1
sS'flimsy'
p2220
I3
sS'statement'
p2221
I1
sS'folds'
p2222
I1
sS'enact'
p2223
I1
sS'uncomfortably'
p2224
I1
sS'book-on-tape'
p2225
I1
sS'sympathies'
p2226
I1
sS'uproarious'
p2227
I1
sS'relationship'
p2228
I2
sS'tom'
p2229
I2
sS'park'
p2230
I2
sS'literarily'
p2231
I1
sS'appreciation'
p2232
I2
sS'satirical'
p2233
I2
sS'permanent'
p2234
I1
sS'focusing'
p2235
I1
sS'theater'
p2236
I14
sS'defuses'
p2237
I1
sS'believe'
p2238
I8
sS'endlessly'
p2239
I1
sS'grace'
p2240
I3
sS'pascale'
p2241
I1
sS'after-school'
p2242
I6
sS'peaked'
p2243
I1
sS'b'
p2244
I1
sS'chewy'
p2245
I1
sS'iranian'
p2246
I1
sS'bruckheimer'
p2247
I1
sS'aan'
p2248
I1
sS'hawke'
p2249
I1
sS'recording'
p2250
I1
sS'determined'
p2251
I1
sS'marriage'
p2252
I1
sS'pessimists'
p2253
I1
sS'art-house'
p2254
I1
sS'bad'
p2255
I87
sS'confessional'
p2256
I1
sS'suffocating'
p2257
I1
sS'adrian'
p2258
I1
sS'magical'
p2259
I2
sS'pedestrian'
p2260
I5
sS'illiterate'
p2261
I1
sS'servitude'
p2262
I1
sS'cleverness'
p2263
I2
sS'mawkish'
p2264
I1
sS'aburrido'
p2265
I1
sS'ditched'
p2266
I1
sS'sell'
p2267
I1
sS'mountain'
p2268
I1
sS'built'
p2269
I4
sS'tough'
p2270
I1
sS'naked'
p2271
I1
sS'leguizamo'
p2272
I1
sS'melodramatic'
p2273
I2
sS'reliance'
p2274
I1
sS'also'
p2275
I23
sS'lifts'
p2276
I1
sS'build'
p2277
I2
sS'obviously'
p2278
I2
sS'commentary'
p2279
I6
sS'insufferable'
p2280
I1
sS'rifkin'
p2281
I1
sS'play'
p2282
I7
sS'spectator'
p2283
I1
sS'yawp'
p2284
I1
sS'confluence'
p2285
I1
sS'raucous'
p2286
I1
sS'brooklyn'
p2287
I1
sS'charm'
p2288
I11
sS'plan'
p2289
I1
sS'odorous'
p2290
I1
sS'digs'
p2291
I1
sS'extremely'
p2292
I3
sS'funnier'
p2293
I6
sS'inarticulate'
p2294
I1
sS'sometimes'
p2295
I12
sS'cover'
p2296
I1
sS'drifts'
p2297
I1
sS'storyline'
p2298
I3
sS'artistic'
p2299
I2
sS'barrel'
p2300
I2
sS'charged'
p2301
I1
sS'amusements'
p2302
I1
sS'dragged'
p2303
I2
sS'husband-and-wife'
p2304
I1
sS'thomas'
p2305
I1
sS'golf'
p2306
I1
sS'gold'
p2307
I1
sS'prepackaged'
p2308
I1
sS'wailing'
p2309
I1
sS'scattered'
p2310
I3
sS'noblest'
p2311
I1
sS'evaporation'
p2312
I1
sS'injected'
p2313
I1
sS'choreography'
p2314
I1
sS'carefully'
p2315
I1
sS'fine'
p2316
I2
sS'overwhelmed'
p2317
I1
sS'impact'
p2318
I2
sS'wraps'
p2319
I1
sS'sputters'
p2320
I2
sS'bravery'
p2321
I1
sS'double-'
p2322
I1
sS'writer'
p2323
I3
sS'waiting'
p2324
I5
sS'sugarman'
p2325
I2
sS'competently'
p2326
I1
sS'failed'
p2327
I4
sS'well-crafted'
p2328
I2
sS'symptom'
p2329
I1
sS'sense-of-humour'
p2330
I1
sS'factor'
p2331
I3
sS'puportedly'
p2332
I1
sS'columns'
p2333
I1
sS'giants'
p2334
I1
sS'prowess'
p2335
I1
sS'african-americans'
p2336
I2
sS'dependent'
p2337
I1
sS'bibbidy-bobbidi-bland'
p2338
I1
sS'strands'
p2339
I1
sS'cheaper'
p2340
I1
sS'courage'
p2341
I2
sS'actress'
p2342
I5
sS'closely'
p2343
I1
sS'frightening'
p2344
I2
sS'dustin'
p2345
I1
sS'land-based'
p2346
I1
sS'frankly'
p2347
I4
sS'tumult'
p2348
I1
sS'cry'
p2349
I1
sS'violent'
p2350
I3
sS'coughs'
p2351
I1
sS'spliced'
p2352
I1
sS'pseudo-serious'
p2353
I2
sS'obscure'
p2354
I2
sS'weaves'
p2355
I1
sS'unsentimental'
p2356
I1
sS'roundhouse'
p2357
I1
sS'approaching'
p2358
I2
sS'body'
p2359
I1
sS'set'
p2360
I12
sS'noticeably'
p2361
I1
sS'scruffy'
p2362
I1
sS'cynical'
p2363
I3
sS'iteration'
p2364
I1
sS'self-exploitation'
p2365
I1
sS'sex'
p2366
I10
sS'cattaneo'
p2367
I1
sS'see'
p2368
I43
sS'tackles'
p2369
I1
sS'sea'
p2370
I2
sS'overboard'
p2371
I1
sS'sung'
p2372
I1
sS'outward'
p2373
I1
sS'writer-director'
p2374
I9
sS'knees'
p2375
I2
sS'stance'
p2376
I2
sS'same-old'
p2377
I1
sS'unsettling'
p2378
I3
sS'muted'
p2379
I1
sS'movie'
p2380
I290
sS'currently'
p2381
I1
sS'diluted'
p2382
I1
sS'pootie'
p2383
I1
sS'pickup'
p2384
I1
sS'hartley'
p2385
I4
sS'rom-com'
p2386
I1
sS'argento'
p2387
I1
sS'cutout'
p2388
I1
sS'dilutes'
p2389
I1
sS'monsters'
p2390
I1
sS'knowing'
p2391
I2
sS'milder'
p2392
I1
sS'roteirista'
p2393
I1
sS'premises'
p2394
I1
sS'premisa'
p2395
I1
sS'tropes'
p2396
I2
sS'corruscating'
p2397
I1
sS'clueless'
p2398
I2
sS'irreverence'
p2399
I1
sS'drawings'
p2400
I1
sS'half-hour'
p2401
I1
sS'rethink'
p2402
I1
sS'patched'
p2403
I1
sS'cavorting'
p2404
I1
sS'desired'
p2405
I1
sS'solely'
p2406
I1
sS'barely'
p2407
I7
sS'bait-and-tackle'
p2408
I1
sS'foreign'
p2409
I2
sS'dreamlike'
p2410
I1
sS'connection'
p2411
I1
sS'whole'
p2412
I27
sS'load'
p2413
I2
sS'already-shallow'
p2414
I1
sS'point'
p2415
I16
sS'simple'
p2416
I5
sS'acted'
p2417
I6
sS'recycling'
p2418
I1
sS'hollow'
p2419
I6
sS'eviction'
p2420
I1
sS'simply'
p2421
I25
sS'adaptation'
p2422
I7
sS'scottish'
p2423
I1
sS'far-fetched'
p2424
I1
sS'throughout'
p2425
I3
sS'unemotional'
p2426
I1
sS'expensive'
p2427
I1
sS'belt'
p2428
I1
sS'less-compelling'
p2429
I1
sS'worthless'
p2430
I1
sS'filth'
p2431
I1
sS'raise'
p2432
I3
sS'celebi'
p2433
I1
sS'conveyor'
p2434
I1
sS'bisset'
p2435
I1
sS'trilogy'
p2436
I1
sS'satire'
p2437
I7
sS'hitting'
p2438
I3
sS'secret'
p2439
I1
sS'anti-human'
p2440
I1
sS'bartleby'
p2441
I3
sS'slips'
p2442
I1
sS'wish'
p2443
I4
sS'champion'
p2444
I1
sS'gay'
p2445
I5
sS'musset'
p2446
I1
sS'fire'
p2447
I6
sS'gas'
p2448
I1
sS'great'
p2449
I13
sS'gap'
p2450
I1
sS'races'
p2451
I1
sS'understand'
p2452
I3
sS'specifically'
p2453
I1
sS'gag'
p2454
I1
sS'insiders'
p2455
I1
sS'wedding'
p2456
I2
sS'poised'
p2457
I1
sS'uncertain'
p2458
I1
sS'grains'
p2459
I1
sS'coppola'
p2460
I1
sS'solid'
p2461
I3
sS'straight'
p2462
I10
sS'expanded'
p2463
I1
sS'grainy'
p2464
I1
sS'budget'
p2465
I4
sS'hilariously'
p2466
I1
sS'receive'
p2467
I1
sS'replaced'
p2468
I3
sS'pressed'
p2469
I2
sS'compassion'
p2470
I2
sS'small-screen'
p2471
I1
sS'robin'
p2472
I2
sS'real'
p2473
I20
sS'shoddy'
p2474
I2
sS'hoping'
p2475
I2
sS'century'
p2476
I3
sS'folksy'
p2477
I1
sS'moralistic'
p2478
I1
sS'von'
p2479
I1
sS'encountered'
p2480
I1
sS'owes'
p2481
I3
sS'beautifully'
p2482
I5
sS'romijn-stamos'
p2483
I1
sS'grit'
p2484
I1
sS'nine-tenths'
p2485
I1
sS'monroe'
p2486
I1
sS'chase'
p2487
I4
sS'irony-free'
p2488
I1
sS'funny'
p2489
I36
sS'barney'
p2490
I1
sS'kills'
p2491
I1
sS'would-be'
p2492
I2
sS'concoction'
p2493
I1
sS'vulgarities'
p2494
I1
sS'marcus'
p2495
I1
sS'shorter'
p2496
I1
sS'rules'
p2497
I2
sS'virtually'
p2498
I4
sS'cruelty'
p2499
I1
sS'uncover'
p2500
I1
sS'ugliness'
p2501
I1
sS'soullessness'
p2502
I1
sS'horton'
p2503
I1
sS'day'
p2504
I8
sS'one-hour'
p2505
I3
sS'development'
p2506
I2
sS'laugher'
p2507
I1
sS'assignment'
p2508
I1
sS'fantasti'
p2509
I1
sS'alert'
p2510
I1
sS'existent'
p2511
I1
sS'viewing'
p2512
I4
sS'levels'
p2513
I4
sS'leaps'
p2514
I1
sS'purpose'
p2515
I3
sS'necessity'
p2516
I1
sS'awful'
p2517
I12
sS'realm'
p2518
I1
sS'regis'
p2519
I1
sS'timid'
p2520
I1
sS'predecessors'
p2521
I3
sS'recent'
p2522
I6
sS'canned'
p2523
I2
sS'expend'
p2524
I1
sS'oddest'
p2525
I1
sS'barry'
p2526
I2
sS'dystopian'
p2527
I1
sS'accumulate'
p2528
I1
sS'urgency'
p2529
I1
sS'reginald'
p2530
I2
sS'spent'
p2531
I5
sS'honor'
p2532
I1
sS'person'
p2533
I4
sS'feces'
p2534
I1
sS'cannes'
p2535
I1
sS'thoroughly'
p2536
I6
sS'theatres'
p2537
I2
sS'make-believe'
p2538
I1
sS'sulking'
p2539
I1
sS'italicizes'
p2540
I1
sS'spend'
p2541
I4
sS'alluring'
p2542
I1
sS'composed'
p2543
I1
sS'construct'
p2544
I2
sS'prevails'
p2545
I1
sS'ludicrous'
p2546
I6
sS'befuddled'
p2547
I1
sS'isolated'
p2548
I1
sS'distracting'
p2549
I2
sS'shape'
p2550
I1
sS'unrelentingly'
p2551
I1
sS'scrooge'
p2552
I2
sS'stunt'
p2553
I2
sS'alternative'
p2554
I2
sS'forrest'
p2555
I1
sS'injuries'
p2556
I1
sS'jumpsuit'
p2557
I1
sS'superficial'
p2558
I3
sS'cut'
p2559
I4
sS'pleasuring'
p2560
I1
sS'conclusions'
p2561
I1
sS'surprises'
p2562
I3
sS'admission'
p2563
I2
sS'chest'
p2564
I1
sS'close-to-solid'
p2565
I1
sS'grim'
p2566
I2
sS'eager'
p2567
I4
sS'cue'
p2568
I1
sS'snappy'
p2569
I2
sS'parents'
p2570
I5
sS'location'
p2571
I1
sS'courtney'
p2572
I1
sS'comprehensible'
p2573
I1
sS'contrary'
p2574
I1
sS'surprised'
p2575
I1
sS'ridiculously'
p2576
I1
sS'sensational'
p2577
I1
sS'victims'
p2578
I1
sS'britches'
p2579
I1
sS'demands'
p2580
I2
sS'big'
p2581
I38
sS'couple'
p2582
I4
sS'sleeper'
p2583
I1
sS'by-the-numbers'
p2584
I4
sS'matters'
p2585
I1
sS'suffering'
p2586
I1
sS'quest'
p2587
I3
sS'offends'
p2588
I1
sS'bit'
p2589
I6
sS'long-on-the-shelf'
p2590
I1
sS'projects'
p2591
I1
sS'knock'
p2592
I1
sS'semi'
p2593
I1
sS'marquee'
p2594
I1
sS'follows'
p2595
I4
sS'da'
p2596
I2
sS'run-of-the-mill'
p2597
I1
sS'played-out'
p2598
I1
sS'destination'
p2599
I2
sS'individuals'
p2600
I1
sS'yields'
p2601
I1
sS'thornberry'
p2602
I1
sS'stylish'
p2603
I2
sS'hudlin'
p2604
I1
sS'foolish'
p2605
I2
sS'reduces'
p2606
I1
sS'often'
p2607
I23
sS'humorous'
p2608
I1
sS'spring'
p2609
I1
sS'lodging'
p2610
I1
sS'magnificent'
p2611
I1
sS'back'
p2612
I25
sS'underdeveloped'
p2613
I2
sS'martial'
p2614
I3
sS'bouncy'
p2615
I1
sS'mighty'
p2616
I1
sS'examples'
p2617
I1
sS'sight'
p2618
I4
sS'apply'
p2619
I1
sS'underbelly'
p2620
I1
sS'curious'
p2621
I3
sS'pale'
p2622
I3
sS'kirshner'
p2623
I2
sS'momentary'
p2624
I2
sS'man'
p2625
I17
sS'scale'
p2626
I1
sS'culprit'
p2627
I1
sS'tried-and-true'
p2628
I1
sS'mummy'
p2629
I2
sS'decision'
p2630
I2
sS'measurements'
p2631
I1
sS'pelo'
p2632
I1
sS'bogus'
p2633
I1
sS'whodunit'
p2634
I2
sS'pee'
p2635
I1
sS'dating'
p2636
I1
sS'resolutely'
p2637
I2
sS'either'
p2638
I8
sS'patient'
p2639
I1
sS'ba'
p2640
I1
sS'taxing'
p2641
I1
sS'remembered'
p2642
I3
sS'crooks'
p2643
I1
sS'flashbulb'
p2644
I1
sS'bo'
p2645
I1
sS'agreement'
p2646
I1
sS'blockbusters'
p2647
I1
sS'indie-heads'
p2648
I1
sS'lover'
p2649
I1
sS'nowhere'
p2650
I2
sS'santa'
p2651
I4
sS'political'
p2652
I3
sS'tidal'
p2653
I1
sS'neuwirth'
p2654
I1
sS'obscured'
p2655
I2
sS'cranked'
p2656
I1
sS'deserved'
p2657
I1
sS'simplify'
p2658
I1
sS'exaggerated'
p2659
I1
sS'gere'
p2660
I1
sS'fever-pitched'
p2661
I1
sS'oatmeal'
p2662
I1
sS'drama'
p2663
I25
sS'deserves'
p2664
I3
sS'ounce'
p2665
I1
sS'middle-brow'
p2666
I1
sS'stuart'
p2667
I5
sS'crass'
p2668
I3
sS'genre'
p2669
I10
sS'misplaced'
p2670
I1
sS'funniness'
p2671
I1
sS'dime-store'
p2672
I2
sS'garbage'
p2673
I4
sS'imitation'
p2674
I2
sS'disturbingly'
p2675
I1
sS'loopiness'
p2676
I2
sS'-doing-it-for'
p2677
I1
sS'appropriate'
p2678
I2
sS'obscenely'
p2679
I1
sS'primarily'
p2680
I1
sS'steven'
p2681
I5
sS'lesson'
p2682
I3
sS'downhill'
p2683
I2
sS'interesante'
p2684
I1
sS'careens'
p2685
I1
sS'span'
p2686
I1
sS'sneaky'
p2687
I1
sS'gross-out'
p2688
I3
sS'harnesses'
p2689
I1
sS'soft-core'
p2690
I1
sS'exceed'
p2691
I1
sS'suit'
p2692
I3
sS'bored'
p2693
I2
sS'opens'
p2694
I1
sS'considerably'
p2695
I1
sS'insensitivity'
p2696
I1
sS'byzantine'
p2697
I1
sS'hawaiian'
p2698
I1
sS'travel-agency'
p2699
I1
sS'lint'
p2700
I1
sS'boys'
p2701
I1
sS'late-night'
p2702
I1
sS'link'
p2703
I1
sS'frida'
p2704
I2
sS'adults'
p2705
I9
sS'misfires'
p2706
I1
sS'line'
p2707
I12
sS'considerable'
p2708
I2
sS'lina'
p2709
I1
sS'observation'
p2710
I1
sS'fades'
p2711
I1
sS'cia'
p2712
I1
sS'jonathan'
p2713
I1
sS'sleepers'
p2714
I1
sS'us'
p2715
I28
sS'oily'
p2716
I1
sS'planet'
p2717
I1
sS'halfhearted'
p2718
I1
sS'un'
p2719
I1
sS'exploration'
p2720
I1
sS'mature'
p2721
I1
sS'charmer'
p2722
I1
sS'groove'
p2723
I2
sS'consumed'
p2724
I1
sS'freezers'
p2725
I1
sS'genial'
p2726
I1
sS'impostor'
p2727
I3
sS'constant'
p2728
I2
sS'fans'
p2729
I10
sS'showtime'
p2730
I2
sS'stripped'
p2731
I2
sS'chai'
p2732
I1
sS'influence'
p2733
I2
sS'coasting'
p2734
I1
sS'scarlet'
p2735
I1
sS'single'
p2736
I6
sS'revelatory'
p2737
I2
sS'graceful'
p2738
I1
sS'defines'
p2739
I1
sS'phantom'
p2740
I1
sS'logistically'
p2741
I1
sS'puzzling'
p2742
I1
sS'loser'
p2743
I1
sS'levity'
p2744
I1
sS'crypt'
p2745
I1
sS'tara'
p2746
I2
sS'plugged'
p2747
I1
sS'definitely'
p2748
I3
sS'actors'
p2749
I23
sS'dimmer'
p2750
I1
sS'freighter'
p2751
I1
sS'tart'
p2752
I1
sS'tedium'
p2753
I1
sS'potion'
p2754
I1
sS'energetic'
p2755
I4
sS'accidental'
p2756
I1
sS'gross'
p2757
I2
sS'favourite'
p2758
I1
sS'lashing'
p2759
I1
sS'smoothly'
p2760
I1
sS'robots'
p2761
I1
sS'dead-undead'
p2762
I1
sS'lens'
p2763
I1
sS'overladen'
p2764
I1
sS'slice'
p2765
I1
sS'utterly'
p2766
I5
sS'intermittent'
p2767
I1
sS'fisher'
p2768
I3
sS'sides'
p2769
I1
sS'interfaith'
p2770
I1
sS'implies'
p2771
I1
sS'the-loose'
p2772
I1
sS'off-kilter'
p2773
I2
sS'age'
p2774
I5
sS'vehicles'
p2775
I1
sS'holes'
p2776
I5
sS'walked'
p2777
I2
sS'admiring'
p2778
I1
sS'socrates'
p2779
I1
sS'train'
p2780
I1
sS'dot'
p2781
I2
sS'drenched'
p2782
I1
sS'walker'
p2783
I1
sS'fresh'
p2784
I9
sS'menace'
p2785
I4
sS'noon'
p2786
I1
sS'discards'
p2787
I1
sS'code'
p2788
I1
sS'jason'
p2789
I4
sS'illustrates'
p2790
I2
sS'laziness'
p2791
I1
sS'enjoyably'
p2792
I2
sS'results'
p2793
I6
sS'existing'
p2794
I1
sS'enjoyable'
p2795
I3
sS'intricate'
p2796
I2
sS'flashback'
p2797
I1
sS'renowned'
p2798
I1
sS'seemed'
p2799
I2
sS'graves'
p2800
I1
sS'embellishing'
p2801
I1
sS'slickness'
p2802
I1
sS'peanut'
p2803
I1
sS'concerned'
p2804
I5
sS'hunger'
p2805
I1
sS'young'
p2806
I18
sS'send'
p2807
I1
sS'misanthropic'
p2808
I1
sS'reductions'
p2809
I1
sS'cheapo'
p2810
I1
sS'helps'
p2811
I1
sS'kapur'
p2812
I2
sS'expeditious'
p2813
I1
sS'fatal'
p2814
I4
sS'ingredient'
p2815
I1
sS'stonehenge'
p2816
I1
sS'random'
p2817
I3
sS'torture'
p2818
I1
sS'continues'
p2819
I1
sS'misty-eyed'
p2820
I1
sS'developmentally'
p2821
I1
sS'talkers'
p2822
I1
sS'well-done'
p2823
I1
sS'putting'
p2824
I1
sS'mixing'
p2825
I2
sS'specific'
p2826
I1
sS'artfully'
p2827
I1
sS'timely'
p2828
I1
sS'entire'
p2829
I8
sS'magic'
p2830
I5
sS'mesmerizing'
p2831
I1
sS'eye-filling'
p2832
I1
sS'poster-boy'
p2833
I1
sS'experiencing'
p2834
I1
sS'joel'
p2835
I2
sS'shock'
p2836
I4
sS'hard-bitten'
p2837
I1
sS'fewer'
p2838
I1
sS'try'
p2839
I7
sS'race'
p2840
I2
sS'trite'
p2841
I5
sS'bizarre'
p2842
I3
sS'choppy'
p2843
I5
sS'musicals'
p2844
I2
sS'unsatisfied'
p2845
I2
sS'visuals'
p2846
I4
sS'jacquot'
p2847
I2
sS'mediterranean'
p2848
I1
sS'filled'
p2849
I2
sS'recruitment'
p2850
I1
sS'imply'
p2851
I1
sS'send-up'
p2852
I1
sS'video'
p2853
I24
sS'self-indulgent'
p2854
I5
sS'umpteenth'
p2855
I1
sS'odd'
p2856
I8
sS'ode'
p2857
I1
sS'cutting-room'
p2858
I1
sS'powerpuff'
p2859
I1
sS'clean-cut'
p2860
I1
sS'chicago'
p2861
I1
sS'giving'
p2862
I3
sS'anton'
p2863
I1
sS'anti-virus'
p2864
I1
sS'consistently'
p2865
I1
sS'oration'
p2866
I1
sS'manufactured'
p2867
I3
sS'exercise'
p2868
I14
sS'scenery'
p2869
I3
sS'lee'
p2870
I1
sS'raccoons'
p2871
I1
sS'got'
p2872
I10
sS'wishy-washy'
p2873
I1
sS'punch'
p2874
I2
sS'nonexistent'
p2875
I2
sS'delivering'
p2876
I1
sS'one-sidedness'
p2877
I1
sS'let'
p2878
I1
sS'sink'
p2879
I2
sS'others'
p2880
I6
sS'luis'
p2881
I1
sS'invented'
p2882
I1
sS'fifteen'
p2883
I1
sS'irritating'
p2884
I7
sS'extreme'
p2885
I3
sS'vinegar'
p2886
I1
sS'sentimentality'
p2887
I4
sS'engage'
p2888
I5
sS'talent'
p2889
I10
sS'skirmishes'
p2890
I1
sS'uneasy'
p2891
I2
sS'technical'
p2892
I5
sS'involved'
p2893
I3
sS'nettelbeck'
p2894
I1
sS'contradiction'
p2895
I1
sS'later'
p2896
I1
sS'resurrect'
p2897
I1
sS'naipaul'
p2898
I1
sS'rueful'
p2899
I1
sS'in-the-ring'
p2900
I1
sS'popcorn'
p2901
I1
sS'opinion'
p2902
I1
sS'climb'
p2903
I1
sS'makes'
p2904
I51
sS'maker'
p2905
I1
sS'involves'
p2906
I1
sS'holmes'
p2907
I1
sS'named'
p2908
I3
sS'tarantino'
p2909
I1
sS'limp'
p2910
I2
sS'dudsville'
p2911
I1
sS'private'
p2912
I3
sS'louiso'
p2913
I1
sS'squarely'
p2914
I2
sS'weaker'
p2915
I1
sS'names'
p2916
I1
sS'trivialize'
p2917
I1
sS'limb'
p2918
I1
sS'focus-grouped'
p2919
I1
sS'resolutions'
p2920
I1
sS'sermon'
p2921
I1
sS'feature-length'
p2922
I2
sS'standing'
p2923
I1
sS'tailor'
p2924
I1
sS'fitfully'
p2925
I3
sS'ministers'
p2926
I1
sS'flabby'
p2927
I1
sS'next'
p2928
I17
sS'eleven'
p2929
I1
sS'doubt'
p2930
I3
sS'irrepressible'
p2931
I1
sS'face-to-face'
p2932
I1
sS'butler'
p2933
I1
sS'doubling'
p2934
I1
sS'humorless'
p2935
I1
sS'harrowing'
p2936
I1
sS'dirgelike'
p2937
I1
sS'pencil'
p2938
I1
sS'baffled'
p2939
I1
sS'tootsie'
p2940
I1
sS'wildly'
p2941
I4
sS'bodily'
p2942
I1
sS'cletis'
p2943
I2
sS'folks'
p2944
I1
sS'carrying'
p2945
I1
sS'rubbish'
p2946
I1
sS'tearing'
p2947
I1
sS'pathos'
p2948
I2
sS'depiction'
p2949
I1
sS'account'
p2950
I1
sS'jettisoned'
p2951
I1
sS'britney'
p2952
I3
sS'challenge'
p2953
I1
sS'hopkins'
p2954
I2
sS'exhilaration'
p2955
I1
sS'obvious'
p2956
I12
sS'thin'
p2957
I10
sS'shoulder'
p2958
I2
sS'closing'
p2959
I2
sS'grin'
p2960
I1
sS'tunney'
p2961
I2
sS'wearing'
p2962
I1
sS'streamed'
p2963
I1
sS'telegraphed'
p2964
I2
sS'process'
p2965
I4
sS'lock'
p2966
I1
sS'proportions'
p2967
I2
sS'slim'
p2968
I1
sS'reedy'
p2969
I1
sS'purposes'
p2970
I1
sS'pieces'
p2971
I5
sS'high'
p2972
I10
sS'effectively'
p2973
I1
sS'vicious'
p2974
I2
sS'scarface'
p2975
I2
sS'employs'
p2976
I1
sS'bones'
p2977
I4
sS'arnie'
p2978
I2
sS'paws'
p2979
I1
sS'bolstered'
p2980
I1
sS'contempt'
p2981
I2
sS'engagingly'
p2982
I1
sS'godzilla'
p2983
I1
sS'lame'
p2984
I7
sS'boxing'
p2985
I4
sS'responsibilities'
p2986
I1
sS'gump'
p2987
I1
sS'pair'
p2988
I2
sS'attachment'
p2989
I1
sS'animal'
p2990
I6
sS'suspend'
p2991
I2
sS'mysteries'
p2992
I1
sS'comedy'
p2993
I57
sS'intelligent'
p2994
I7
sS'stock'
p2995
I4
sS'buildings'
p2996
I1
sS'stasis'
p2997
I1
sS'boom-box'
p2998
I1
sS'sir'
p2999
I1
sS'language'
p3000
I3
sS'impetuousness'
p3001
I1
sS'waters'
p3002
I4
sS'philosophy'
p3003
I1
sS'leukemia'
p3004
I1
sS'collection'
p3005
I5
sS'bothered'
p3006
I1
sS'mixed'
p3007
I4
sS'reggio'
p3008
I1
sS'preferring'
p3009
I1
sS'fab'
p3010
I1
sS'hawk'
p3011
I2
sS'hawn'
p3012
I1
sS'efficiently'
p3013
I1
sS'ambiguous'
p3014
I1
sS'realized'
p3015
I3
sS'undernourished'
p3016
I1
sS'chasing'
p3017
I1
sS'sleepwalk'
p3018
I1
sS'noises'
p3019
I1
sS'lines'
p3020
I3
sS'liner'
p3021
I1
sS'redundant'
p3022
I2
sS'element'
p3023
I2
sS'incessant'
p3024
I1
sS'cliches'
p3025
I13
sS'realizes'
p3026
I1
sS'allow'
p3027
I1
sS'addiction'
p3028
I1
sS'picture-perfect'
p3029
I1
sS'time-switching'
p3030
I1
sS'holds'
p3031
I3
sS'producer'
p3032
I2
sS'produces'
p3033
I2
sS'insight'
p3034
I6
sS'quietly'
p3035
I1
sS'half-dozen'
p3036
I1
sS'contriving'
p3037
I2
sS'produced'
p3038
I4
sS'earth'
p3039
I2
sS'directs'
p3040
I1
sS'shreds'
p3041
I1
sS'operative'
p3042
I1
sS'chemistry'
p3043
I6
sS'perfect'
p3044
I4
sS'benjamins'
p3045
I1
sS'le'
p3046
I1
sS'la'
p3047
I3
sS'lo'
p3048
I3
sS'decorum'
p3049
I1
sS'li'
p3050
I1
sS'resorting'
p3051
I1
sS'targeted'
p3052
I2
sS'heroism'
p3053
I1
sS'blatant'
p3054
I2
sS'drumline'
p3055
I1
sS'pop-up'
p3056
I1
sS'derivative'
p3057
I5
sS'criminal'
p3058
I1
sS'machinations'
p3059
I1
sS'archival'
p3060
I2
sS'dad'
p3061
I3
sS'tickled'
p3062
I1
sS'cuss'
p3063
I1
sS'insistent'
p3064
I1
sS'python'
p3065
I1
sS'nada'
p3066
I1
sS'spell'
p3067
I4
sS'muddle'
p3068
I1
sS'mediocre'
p3069
I10
sS'unimpressively'
p3070
I1
sS'heavy-handed'
p3071
I6
sS'cutting'
p3072
I2
sS'kiss'
p3073
I1
sS'waterboy'
p3074
I1
sS'garner'
p3075
I1
sS'pompous'
p3076
I1
sS'transparent'
p3077
I1
sS'doce'
p3078
I1
sS'minimalist'
p3079
I1
sS'personally'
p3080
I1
sS'surface-effect'
p3081
I1
sS'hallmarks'
p3082
I1
sS'installment'
p3083
I1
sS'samira'
p3084
I1
sS'scenic'
p3085
I2
sS'equlibrium'
p3086
I1
sS'freshness'
p3087
I1
sS'merge'
p3088
I1
sS'delightful'
p3089
I1
sS'unembarrassing'
p3090
I1
sS'gallo'
p3091
I1
sS'truth'
p3092
I1
sS'references'
p3093
I3
sS'uninteresting'
p3094
I2
sS'flair'
p3095
I1
sS'activate'
p3096
I1
sS'self-image'
p3097
I1
sS'triteness'
p3098
I1
sS'freaking'
p3099
I1
sS'in-your-face'
p3100
I1
sS'society'
p3101
I2
sS'junkie'
p3102
I1
sS'attendant'
p3103
I1
sS'static'
p3104
I3
sS'eisenstein'
p3105
I1
sS'accumulated'
p3106
I2
sS'boorishness'
p3107
I1
sS'banal'
p3108
I7
sS'programmer'
p3109
I1
sS'sexual'
p3110
I3
sS'witness'
p3111
I3
sS'unoriginal'
p3112
I2
sS'matrix'
p3113
I1
sS'borderline'
p3114
I2
sS'populace'
p3115
I1
sS'continuity'
p3116
I2
sS'shallow'
p3117
I8
sS'microscope'
p3118
I1
sS'narratively'
p3119
I2
sS'wisecracking'
p3120
I1
sS'decirles'
p3121
I1
sS'hilarious'
p3122
I1
sS'goliath'
p3123
I1
sS'fondly'
p3124
I1
sS'red'
p3125
I2
sS'rampantly'
p3126
I1
sS'self-examination'
p3127
I1
sS'approached'
p3128
I1
sS'isle'
p3129
I1
sS'frank'
p3130
I4
sS'ice-t'
p3131
I1
sS'graze'
p3132
I1
sS'machismo'
p3133
I1
sS'surely'
p3134
I1
sS'convolutions'
p3135
I2
sS'disintegrating'
p3136
I2
sS'thrust'
p3137
I1
sS'tok'
p3138
I1
sS'shortest'
p3139
I1
sS'scary'
p3140
I9
sS'retooling'
p3141
I1
sS'birot'
p3142
I1
sS'dubbed'
p3143
I3
sS'ruins'
p3144
I1
sS'could'
p3145
I35
sS'backwater'
p3146
I1
sS'yarn'
p3147
I1
sS'david'
p3148
I3
sS'congeniality'
p3149
I1
sS'length'
p3150
I2
sS'frat'
p3151
I1
sS'industrial-model'
p3152
I1
sS're-'
p3153
I1
sS'davis'
p3154
I2
sS'receding'
p3155
I1
sS'south'
p3156
I1
sS'degree'
p3157
I1
sS'finest'
p3158
I1
sS'blown'
p3159
I1
sS'scene'
p3160
I5
sS'sack'
p3161
I1
sS'soothing'
p3162
I1
sS'embarrassed'
p3163
I1
sS'puppet'
p3164
I1
sS'blows'
p3165
I2
sS'non-britney'
p3166
I1
sS'fascinating'
p3167
I6
sS'los'
p3168
I1
sS'festival'
p3169
I4
sS'vulgar'
p3170
I5
sS'system'
p3171
I1
sS'fahrenheit'
p3172
I1
sS'exhilarating'
p3173
I1
sS'norton'
p3174
I1
sS'messing'
p3175
I1
sS'iota'
p3176
I1
sS'painful'
p3177
I5
sS'pervasive'
p3178
I1
sS'accompany'
p3179
I1
sS'stars'
p3180
I6
sS'ragbag'
p3181
I1
sS'shorts'
p3182
I1
sS'explanation'
p3183
I1
sS'balto'
p3184
I1
sS'dreary'
p3185
I2
sS'depressing'
p3186
I7
sS'larger'
p3187
I2
sS'sporadically'
p3188
I1
sS'deeply'
p3189
I4
sS'chong'
p3190
I1
sS'completes'
p3191
I1
sS'lovefest'
p3192
I1
sS'valley'
p3193
I2
sS'slack'
p3194
I2
sS'naturalness'
p3195
I1
sS'bother'
p3196
I7
sS'roberto'
p3197
I2
sS'tortured'
p3198
I1
sS'roberts'
p3199
I1
sS'appealing'
p3200
I5
sS'assumes'
p3201
I1
sS'loves'
p3202
I2
sS'daydreams'
p3203
I1
sS'distinctive'
p3204
I1
sS'pretends'
p3205
I3
sS'amble'
p3206
I1
sS'devotion'
p3207
I1
sS'false'
p3208
I2
sS'catholics'
p3209
I1
sS'viewer'
p3210
I13
sS'abomination'
p3211
I1
sS'curves'
p3212
I1
sS'patting'
p3213
I1
sS'gentle'
p3214
I2
sS'super-stupid'
p3215
I1
sS'khouri'
p3216
I1
sS'unlikely'
p3217
I2
sS'dictate'
p3218
I1
sS'clunker'
p3219
I2
sS'blockbuster'
p3220
I1
sS'apparently'
p3221
I4
sS'clearly'
p3222
I7
sS'viewed'
p3223
I1
sS'heft'
p3224
I1
sS'stirs'
p3225
I1
sS'minimally'
p3226
I1
sS'skulls'
p3227
I1
sS'mib'
p3228
I3
sS'davies'
p3229
I1
sS'mix'
p3230
I2
sS'forbidden'
p3231
I1
sS'provoked'
p3232
I1
sS'latino'
p3233
I1
sS'lily'
p3234
I2
sS'competence'
p3235
I1
sS'posits'
p3236
I1
sS'buggy'
p3237
I1
sS'unless'
p3238
I4
sS'improvised'
p3239
I1
sS'raindrop'
p3240
I1
sS'-greaseballs'
p3241
I1
sS'sophomoric'
p3242
I2
sS'right-on'
p3243
I1
sS'misogynistic'
p3244
I2
sS'cipher'
p3245
I1
sS'eight'
p3246
I4
sS'device'
p3247
I2
sS'medal'
p3248
I1
sS'so-called'
p3249
I1
sS'inexorable'
p3250
I1
sS'placement'
p3251
I1
sS'b-movie'
p3252
I2
sS'downbeat'
p3253
I1
sS'inappropriate'
p3254
I2
sS'stronger'
p3255
I1
sS'thanksgiving'
p3256
I1
sS'face'
p3257
I6
sS'convicted'
p3258
I1
sS'absurd'
p3259
I2
sS'mechanical'
p3260
I4
sS'mick'
p3261
I2
sS'skinny'
p3262
I1
sS'maddeningly'
p3263
I1
sS'normally'
p3264
I1
sS'fact'
p3265
I16
sS'dumbfoundingly'
p3266
I1
sS'atmosphere'
p3267
I4
sS'impish'
p3268
I1
sS'absorbing'
p3269
I1
sS'rainbows'
p3270
I1
sS'bring'
p3271
I5
sS'bikes'
p3272
I1
sS'phonce'
p3273
I1
sS'rough'
p3274
I1
sS'longer'
p3275
I4
sS'fictional'
p3276
I1
sS'inspiring'
p3277
I3
sS'noir'
p3278
I1
sS'knowledge'
p3279
I1
sS'jay'
p3280
I3
sS'sparks'
p3281
I1
sS'languorous'
p3282
I1
sS'jar'
p3283
I1
sS'fumbles'
p3284
I1
sS'promisingly'
p3285
I2
sS'spontaneity'
p3286
I3
sS'smutty'
p3287
I1
sS'halfwit'
p3288
I1
sS'wretchedness'
p3289
I1
sS'hope'
p3290
I5
sS'day-old'
p3291
I1
sS'meant'
p3292
I2
sS'move'
p3293
I6
sS'handle'
p3294
I1
sS'disappointingly'
p3295
I2
sS'beat'
p3296
I5
sS'intellectually'
p3297
I1
sS'bottom-feeder'
p3298
I1
sS'hypnotically'
p3299
I1
sS'lucky'
p3300
I1
sS'bear'
p3301
I4
sS'act'
p3302
I8
sS'bungling'
p3303
I1
sS'h'
p3304
I1
sS'movie-specific'
p3305
I1
sS'reid'
p3306
I2
sS'extremists'
p3307
I1
sS'stuff'
p3308
I10
sS'tightening'
p3309
I1
sS'craven'
p3310
I2
sS'guessing'
p3311
I2
sS'exists'
p3312
I2
sS'numbingly'
p3313
I1
sS'frame'
p3314
I5
sS'benigni'
p3315
I4
sS'edition'
p3316
I2
sS'intensity'
p3317
I1
sS'roughage'
p3318
I1
sS'co-director'
p3319
I1
sS'embalmed'
p3320
I1
sS'packed'
p3321
I1
sS'shallows'
p3322
I1
sS'pedigree'
p3323
I3
sS'insulting'
p3324
I3
sS'nuclear'
p3325
I2
sS'suspenseful'
p3326
I1
sS'ralph'
p3327
I2
sS'brunt'
p3328
I1
sS'routine'
p3329
I7
sS'bunch'
p3330
I2
sS'theft'
p3331
I1
sS'ends'
p3332
I11
sS'explosive'
p3333
I1
sS'evolving'
p3334
I1
sS'weak'
p3335
I5
sS'deliver'
p3336
I3
sS'revived'
p3337
I1
sS'shanghai'
p3338
I1
sS'witless'
p3339
I3
sS'armenia'
p3340
I1
sS'interchangeable'
p3341
I1
sS'boss'
p3342
I1
sS'improbabilities'
p3343
I1
sS'overstylized'
p3344
I1
sS'aaliyah'
p3345
I1
sS'empathy'
p3346
I2
sS'revoked'
p3347
I1
sS'fused'
p3348
I1
sS'joke'
p3349
I3
sS'taking'
p3350
I3
sS'goldie'
p3351
I1
sS'foibles'
p3352
I1
sS'etc'
p3353
I3
sS'figures'
p3354
I1
sS'manchild'
p3355
I1
sS'deriding'
p3356
I1
sS'passing'
p3357
I1
sS'afraid'
p3358
I4
sS'otherwise'
p3359
I9
sS'comment'
p3360
I3
sS'castles'
p3361
I1
sS'relevant'
p3362
I2
sS'virtuosity'
p3363
I1
sS'fussy'
p3364
I2
sS'malcolm'
p3365
I1
sS'cd'
p3366
I1
sS'bodice-ripper'
p3367
I1
sS'diverges'
p3368
I1
sS'denis'
p3369
I1
sS'stylistically'
p3370
I1
sS'crafted'
p3371
I3
sS'gave'
p3372
I3
sS'winning'
p3373
I1
sS'undergraduate'
p3374
I1
sS'unearthed'
p3375
I1
sS'strip-mined'
p3376
I1
sS'pratfalls'
p3377
I1
sS'self-righteous'
p3378
I1
sS'acts'
p3379
I2
sS'depressingly'
p3380
I1
sS'tremendous'
p3381
I1
sS'trajectory'
p3382
I1
sS'clunkiness'
p3383
I1
sS'dazzling'
p3384
I1
sS'willing'
p3385
I1
sS'hat-in-hand'
p3386
I1
sS'certain'
p3387
I4
sS'upbeat'
p3388
I1
sS'waste'
p3389
I8
sS'self-importance'
p3390
I1
sS'ballast'
p3391
I1
sS'drang'
p3392
I1
sS'homosexual'
p3393
I1
sS'coherence'
p3394
I2
sS'laboriousness'
p3395
I1
sS'finale'
p3396
I2
sS'assert'
p3397
I1
sS'inconsistencies'
p3398
I1
sS'hateful'
p3399
I1
sS'hobby'
p3400
I1
sS'despite'
p3401
I23
sS'expounded'
p3402
I1
sS'toothless'
p3403
I1
sS'imagination'
p3404
I4
sS'rambo-'
p3405
I1
sS'plain'
p3406
I10
sS'perilously'
p3407
I1
sS'promoter'
p3408
I1
sS'pretentious'
p3409
I15
sS'middle'
p3410
I4
sS'expiration'
p3411
I1
sS'country'
p3412
I4
sS'revisited'
p3413
I1
sS'bathtub'
p3414
I1
sS'frustrating'
p3415
I5
sS'bombards'
p3416
I1
sS'stuffing'
p3417
I1
sS'aesthetics'
p3418
I1
sS'almost'
p3419
I26
sS'murphy'
p3420
I3
sS'insanely'
p3421
I2
sS'surprisingly'
p3422
I5
sS'jelly'
p3423
I1
sS'lust'
p3424
I2
sS'vs'
p3425
I3
sS'vu'
p3426
I1
sS'raison'
p3427
I1
sS'lifetime'
p3428
I2
sS'prose'
p3429
I2
sS'police-oriented'
p3430
I1
sS'inspector'
p3431
I1
sS'greater'
p3432
I1
sS'portray'
p3433
I2
sS'whirl'
p3434
I1
sS'terrorist'
p3435
I2
sS'brockovich'
p3436
I1
sS'una'
p3437
I1
sS'collinwood'
p3438
I1
sS'defiant'
p3439
I1
sS'romance'
p3440
I9
sS'trenchant'
p3441
I1
sS'brosnan'
p3442
I1
sS'terrorism'
p3443
I1
sS'glaring'
p3444
I2
sS'mildly'
p3445
I6
sS'garish'
p3446
I1
sS'slickly'
p3447
I1
sS'kidnapping'
p3448
I1
sS'y'
p3449
I1
sS'sade'
p3450
I1
sS'emotionally'
p3451
I7
sS'bale'
p3452
I1
sS'drink'
p3453
I3
sS'upon'
p3454
I1
sS'unsympathetic'
p3455
I2
sS'commended'
p3456
I1
sS'nijinsky'
p3457
I1
sS'self-satisfaction'
p3458
I1
sS'never'
p3459
I53
sS'robotic'
p3460
I1
sS'sunburn'
p3461
I1
sS'orgy'
p3462
I1
sS'identity'
p3463
I2
sS'pleasantly'
p3464
I1
sS'clips'
p3465
I1
sS'resultado'
p3466
I2
sS'kidnappings'
p3467
I1
sS'fascinate'
p3468
I1
sS'mention'
p3469
I4
sS'groans'
p3470
I1
sS'seth'
p3471
I1
sS'antonio'
p3472
I1
sS'wants'
p3473
I8
sS'exceedingly'
p3474
I1
sS'residuals'
p3475
I1
sS'redeemable'
p3476
I1
sS'sets'
p3477
I2
sS'wreckage'
p3478
I1
sS'veljohnson'
p3479
I1
sS'tactfully'
p3480
I1
sS'usual'
p3481
I3
sS'non-mystery'
p3482
I1
sS'stores'
p3483
I1
sS'legendary'
p3484
I3
sS'less'
p3485
I26
sS'moments'
p3486
I17
sS'granddad'
p3487
I1
sS'executive'
p3488
I1
sS'indieflick'
p3489
I1
sS'spielberg'
p3490
I2
sS'glum'
p3491
I1
sS'exemplary'
p3492
I1
sS'paul'
p3493
I1
sS'rambles'
p3494
I1
sS'moretti'
p3495
I1
sS'generous'
p3496
I1
sS'super-serious'
p3497
I1
sS'roses'
p3498
I1
sS'squabbling'
p3499
I1
sS'demographic'
p3500
I3
sS'lake'
p3501
I1
sS'recommending'
p3502
I1
sS'realize'
p3503
I2
sS'wes'
p3504
I1
sS'arrest'
p3505
I1
sS'add'
p3506
I9
sS'cross-promotion'
p3507
I1
sS'clipped'
p3508
I1
sS'wet'
p3509
I2
sS'mannered'
p3510
I1
sS'niro'
p3511
I4
sS'unengaging'
p3512
I2
sS'vain'
p3513
I1
sS'ought'
p3514
I4
sS'incarnations'
p3515
I1
sS'passably'
p3516
I1
sS'thoughtlessly'
p3517
I1
sS'overdoses'
p3518
I1
sS'crux'
p3519
I1
sS'wallowing'
p3520
I2
sS'cedar'
p3521
I1
sS'dish'
p3522
I1
sS'passable'
p3523
I4
sS'pies'
p3524
I1
sS'string'
p3525
I6
sS'crisp'
p3526
I1
sS'like'
p3527
I163
sS'success'
p3528
I3
sS'vibrant'
p3529
I1
sS'porous'
p3530
I1
sS'admitted'
p3531
I1
sS'clockstoppers'
p3532
I3
sS'journalist'
p3533
I1
sS'flickering'
p3534
I1
sS'warned'
p3535
I1
sS'become'
p3536
I9
sS'funniest'
p3537
I5
sS'works'
p3538
I14
sS'war-movie'
p3539
I1
sS'farrelly'
p3540
I3
sS'inexperienced'
p3541
I1
sS'kaleidoscope'
p3542
I1
sS'accessible'
p3543
I2
sS'murk'
p3544
I1
sS'whiney'
p3545
I1
sS'cutoffs'
p3546
I1
sS'footage'
p3547
I2
sS'thief'
p3548
I1
sS'alive'
p3549
I1
sS'gymnastics'
p3550
I1
sS'story'
p3551
I85
sS'big-budget'
p3552
I1
sS'loaded'
p3553
I2
sS'proper'
p3554
I1
sS'stuffy'
p3555
I1
sS'happens'
p3556
I4
sS'unfunny'
p3557
I9
sS'disbelief'
p3558
I1
sS'sufficiently'
p3559
I1
sS'literally'
p3560
I2
sS'avoid'
p3561
I5
sS'inkling'
p3562
I1
sS'skid-row'
p3563
I1
sS'passion'
p3564
I5
sS'economical'
p3565
I1
sS'assuming'
p3566
I1
sS'snuggle'
p3567
I1
sS'trap'
p3568
I1
sS'regain'
p3569
I1
sS'pepper'
p3570
I1
sS'blowing'
p3571
I1
sS'voluptuous'
p3572
I1
sS'slight'
p3573
I4
sS'uptight'
p3574
I1
sS'although'
p3575
I12
sS'worthy'
p3576
I3
sS'drained'
p3577
I1
sS'engendering'
p3578
I1
sS'gandalf'
p3579
I1
sS'includes'
p3580
I2
sS'stage'
p3581
I1
sS'gained'
p3582
I2
sS'seriousness'
p3583
I1
sS'lifestyle'
p3584
I1
sS'asks'
p3585
I3
sS'gazing'
p3586
I2
sS'serviceable'
p3587
I1
sS'angeles'
p3588
I1
sS'nohe'
p3589
I1
sS'evoke'
p3590
I2
sS'hallmark'
p3591
I1
sS'bullets'
p3592
I2
sS'concession'
p3593
I1
sS'documentary'
p3594
I13
sS'double-pistoled'
p3595
I1
sS'swimming'
p3596
I1
sS'rendered'
p3597
I1
sS'suited'
p3598
I2
sS'flailing'
p3599
I2
sS'three'
p3600
I11
sS'assess'
p3601
I1
sS'hubert'
p3602
I1
sS'roads'
p3603
I1
sS'gleaned'
p3604
I2
sS'mere'
p3605
I2
sS'demeanour'
p3606
I1
sS'dizzying'
p3607
I1
sS'yorkers'
p3608
I1
sS'adolescent'
p3609
I1
sS'out-sized'
p3610
I1
sS'pairing'
p3611
I2
sS'spots'
p3612
I3
sS'tarted'
p3613
I1
sS'frustration'
p3614
I2
sS'biggest'
p3615
I3
sS'naturally'
p3616
I2
sS'function'
p3617
I3
sS'buy'
p3618
I5
sS'enchantment'
p3619
I1
sS'brand'
p3620
I1
sS'basic'
p3621
I3
sS'whimsy'
p3622
I2
sS'delivery'
p3623
I3
sS'reminds'
p3624
I1
sS'grato'
p3625
I1
sS'construction'
p3626
I3
sS'sequer'
p3627
I1
sS'delivers'
p3628
I4
sS'kraft'
p3629
I1
sS'bug'
p3630
I1
sS'count'
p3631
I3
sS'genitals'
p3632
I2
sS'lovely'
p3633
I6
sS'tossed'
p3634
I1
sS'marquis'
p3635
I1
sS'evident'
p3636
I1
sS'dangerous'
p3637
I3
sS'j'
p3638
I3
sS'triumphant'
p3639
I1
sS'excitement'
p3640
I4
sS'placed'
p3641
I1
sS'tosses'
p3642
I2
sS'problem'
p3643
I12
sS'minutes'
p3644
I44
sS'thorn'
p3645
I1
sS'moralizing'
p3646
I1
sS'bearing'
p3647
I1
sS'irish'
p3648
I1
sS'recognize'
p3649
I1
sS'humor-seeking'
p3650
I1
sS'pie'
p3651
I4
sS'remain-nameless'
p3652
I1
sS'throwaway'
p3653
I1
sS'plundered'
p3654
I1
sS'dawson'
p3655
I1
sS'shooting'
p3656
I6
sS'pit'
p3657
I2
sS'proceeds'
p3658
I1
sS'jesse'
p3659
I1
sS'exhausting'
p3660
I3
sS'broder'
p3661
I1
sS'compared'
p3662
I2
sS'nonetheless'
p3663
I1
sS'deadly'
p3664
I2
sS'detail'
p3665
I1
sS'surreal'
p3666
I1
sS'sewer'
p3667
I1
sS'details'
p3668
I4
sS'squashed'
p3669
I1
sS'illusion'
p3670
I1
sS'reckless'
p3671
I1
sS'virtues'
p3672
I2
sS'sunshine'
p3673
I1
sS'conveys'
p3674
I1
sS'class'
p3675
I2
sS'matt'
p3676
I1
sS'variation'
p3677
I1
sS'baffling'
p3678
I4
sS'wallow'
p3679
I1
sS'augmentation'
p3680
I1
sS'masterpiece'
p3681
I2
sS'vein'
p3682
I1
sS'inspiration'
p3683
I3
sS'searches'
p3684
I1
sS'unspeakably'
p3685
I1
sS'platter'
p3686
I1
sS'sentiment'
p3687
I2
sS'littered'
p3688
I1
sS'mercenary'
p3689
I1
sS'lift'
p3690
I2
sS'trims'
p3691
I1
sS'cinephile'
p3692
I1
sS'thunderstorms'
p3693
I1
sS'limited'
p3694
I2
sS'poke-mania'
p3695
I1
sS'two-dimensional'
p3696
I2
sS'magnetic'
p3697
I1
sS'saves'
p3698
I1
sS'tv-cops'
p3699
I1
sS'joshua'
p3700
I1
sS'sleek'
p3701
I1
sS'yikes'
p3702
I1
sS'sleep'
p3703
I2
sS'tenuous'
p3704
I1
sS'appetite'
p3705
I1
sS'rekindle'
p3706
I1
sS'assembled'
p3707
I3
sS'poorly'
p3708
I9
sS'stinks'
p3709
I3
sS'chinese'
p3710
I2
sS'paris'
p3711
I1
sS'ali'
p3712
I1
sS'abundance'
p3713
I1
sS'tickle'
p3714
I1
sS'invaders'
p3715
I1
sS'edward'
p3716
I1
sS'thinness'
p3717
I1
sS'gasp-inducing'
p3718
I1
sS'noisy'
p3719
I1
sS'worth'
p3720
I16
sS'climax'
p3721
I1
sS'softener'
p3722
I1
sS'road'
p3723
I4
sS'lack'
p3724
I18
sS'tykwer'
p3725
I1
sS'blanket'
p3726
I1
sS'rise'
p3727
I1
sS'sheridan'
p3728
I1
sS'sellers'
p3729
I1
sS'procession'
p3730
I2
sS'manic'
p3731
I1
sS'aqueles'
p3732
I1
sS'disposible'
p3733
I1
sS'jack'
p3734
I1
sS'begrudge'
p3735
I1
sS'waterlogged'
p3736
I2
sS'monkeys'
p3737
I1
sS'glizty'
p3738
I1
sS'school'
p3739
I6
sS'progression'
p3740
I1
sS'wincing'
p3741
I1
sS'relentlessly'
p3742
I4
sS'rose-colored'
p3743
I1
sS'flashy'
p3744
I3
sS'guiding'
p3745
I1
sS'affectation'
p3746
I1
sS'delightfully'
p3747
I1
sS'undercover'
p3748
I1
sS'triumph'
p3749
I1
sS'hora'
p3750
I1
sS'forget'
p3751
I8
sS'bicycle'
p3752
I1
sS'diverting'
p3753
I3
sS'ingenue'
p3754
I1
sS'phones'
p3755
I2
sS'consistent'
p3756
I1
sS'feathers'
p3757
I3
sS'harold'
p3758
I1
sS'approximation'
p3759
I1
sS'preaches'
p3760
I1
sS'buff'
p3761
I1
sS'churns'
p3762
I1
sS'friendships'
p3763
I1
sS'emptiness'
p3764
I2
sS'sorriest'
p3765
I1
sS'hopelessly'
p3766
I1
sS'blue'
p3767
I5
sS'meekly'
p3768
I1
sS'hide'
p3769
I3
sS'deliberate'
p3770
I1
sS'fessenden'
p3771
I1
sS'beaten'
p3772
I2
sS'supplied'
p3773
I1
sS'plodding'
p3774
I7
sS'blur'
p3775
I1
sS'officially'
p3776
I1
sS'disney'
p3777
I4
sS'told'
p3778
I5
sS'simultaneously'
p3779
I1
sS'sinks'
p3780
I2
sS'revels'
p3781
I1
sS'glimpse'
p3782
I1
sS'pluto'
p3783
I2
sS'nutjob'
p3784
I1
sS'beck'
p3785
I1
sS'studio'
p3786
I4
sS'caretakers'
p3787
I1
sS'path'
p3788
I2
sS'enron'
p3789
I1
sS'digits'
p3790
I2
sS'hairdo'
p3791
I1
sS'balance'
p3792
I4
sS'daughter'
p3793
I1
sS'pornographic'
p3794
I1
sS'hideously'
p3795
I1
sS'ventures'
p3796
I1
sS'study'
p3797
I8
sS'ridicule'
p3798
I1
sS'sex-reassignment'
p3799
I1
sS'kurys'
p3800
I1
sS'chilling'
p3801
I1
sS'que'
p3802
I8
sS'midway'
p3803
I1
sS'smoochy'
p3804
I3
sS'prints'
p3805
I1
sS'overemphatic'
p3806
I1
sS'term'
p3807
I2
sS'julie'
p3808
I1
sS'loveless'
p3809
I1
sS'hitchcockian'
p3810
I1
sS'highly'
p3811
I2
sS'patience'
p3812
I1
sS'opportunities'
p3813
I2
sS'hindsight'
p3814
I1
sS'compulsively'
p3815
I1
sS'total'
p3816
I3
sS'philip'
p3817
I2
sS'plot'
p3818
I51
sS'treading'
p3819
I1
sS'swings'
p3820
I2
sS'would'
p3821
I58
sS'palestinian'
p3822
I1
sS'double'
p3823
I2
sS'hospital'
p3824
I1
sS'motivate'
p3825
I1
sS'chooses'
p3826
I2
sS'insult'
p3827
I2
sS'plod'
p3828
I1
sS'program'
p3829
I1
sS'harland'
p3830
I1
sS'preview'
p3831
I1
sS'ravishing'
p3832
I1
sS'breathe'
p3833
I3
sS'inchoate'
p3834
I1
sS'mush'
p3835
I2
sS'sociopath'
p3836
I1
sS'straight-ahead'
p3837
I1
sS'giovanni'
p3838
I1
sS'pudo'
p3839
I1
sS'pic'
p3840
I2
sS'infusion'
p3841
I1
sS'award'
p3842
I1
sS'phone'
p3843
I3
sS'hirosue'
p3844
I1
sS'excellent'
p3845
I2
sS'four-year-old'
p3846
I1
sS'overrun'
p3847
I1
sS'must'
p3848
I3
sS'shoot'
p3849
I2
sS'tnt'
p3850
I1
sS'word'
p3851
I5
sS'wore'
p3852
I2
sS'screenplays'
p3853
I2
sS'shame'
p3854
I2
sS'work'
p3855
I38
sS'mercilessly'
p3856
I2
sS'worn'
p3857
I2
sS'tissue'
p3858
I1
sS'era'
p3859
I4
sS'ms'
p3860
I4
sS'mr'
p3861
I9
sS'entertainer'
p3862
I1
sS'elegantly'
p3863
I2
sS'presenting'
p3864
I1
sS'salvage'
p3865
I1
sS'grenade'
p3866
I1
sS'scripting'
p3867
I1
sS'initial'
p3868
I1
sS'pollute'
p3869
I1
sS'indie'
p3870
I3
sS'gordy'
p3871
I1
sS'generically'
p3872
I1
sS'centered'
p3873
I1
sS'indicates'
p3874
I1
sS'fanciful'
p3875
I1
sS'jumble'
p3876
I3
sS'affirmational'
p3877
I1
sS'indifferent'
p3878
I1
sS'attract'
p3879
I2
sS'collosum'
p3880
I1
sS'end'
p3881
I26
sS'farce'
p3882
I5
sS'laugh-out-loud'
p3883
I1
sS'provide'
p3884
I2
sS'sitting'
p3885
I9
sS'pro-serbian'
p3886
I1
sS'writers'
p3887
I3
sS'toxic'
p3888
I1
sS'ordinary'
p3889
I3
sS'truthful'
p3890
I1
sS'binging'
p3891
I1
sS'badly'
p3892
I8
sS'lan'
p3893
I1
sS'elizabeth'
p3894
I2
sS'mess'
p3895
I13
sS'ladder'
p3896
I1
sS'earlier'
p3897
I3
sS'unbearably'
p3898
I1
sS'damaged'
p3899
I1
sS'lump'
p3900
I2
sS'fat'
p3901
I6
sS'airless'
p3902
I2
sS'lau'
p3903
I1
sS'burly'
p3904
I1
sS'meaningful'
p3905
I1
sS'foundering'
p3906
I1
sS'lar'
p3907
I1
sS'las'
p3908
I1
sS'chills'
p3909
I2
sS'alienate'
p3910
I2
sS'amid'
p3911
I2
sS'schneider'
p3912
I3
sS'appreciate'
p3913
I2
sS'last-second'
p3914
I1
sS'greek'
p3915
I2
sS'nascent'
p3916
I1
sS'chiller'
p3917
I2
sS'jungle'
p3918
I1
sS'enter'
p3919
I2
sS'worst'
p3920
I18
sS'sidesplitting'
p3921
I1
sS'order'
p3922
I1
sS'war-weary'
p3923
I1
sS'dramatically'
p3924
I2
sS'blue-light-special'
p3925
I1
sS'interpretation'
p3926
I1
sS'office'
p3927
I3
sS'devote'
p3928
I1
sS'foursome'
p3929
I1
sS'fiendish'
p3930
I1
sS'expects'
p3931
I2
sS'misery'
p3932
I4
sS'skewering'
p3933
I1
sS'london'
p3934
I1
sS'thievery'
p3935
I1
sS'thesis'
p3936
I2
sS'japan'
p3937
I1
sS'match-up'
p3938
I1
sS'ticket'
p3939
I1
sS'hip-hop'
p3940
I4
sS'bombing'
p3941
I1
sS'hypocrisy'
p3942
I2
sS'somewhere'
p3943
I6
sS'burkina'
p3944
I1
sS'expectations'
p3945
I3
sS'comprehend'
p3946
I1
sS'awfulness'
p3947
I1
sS'production'
p3948
I7
sS'understated'
p3949
I1
sS'fade'
p3950
I2
sS'wiseacre'
p3951
I1
sS'potentially'
p3952
I4
sS'liza'
p3953
I1
sS'perennial'
p3954
I1
sS'eugene'
p3955
I1
sS'versus'
p3956
I1
sS'eventually'
p3957
I7
sS'coffee'
p3958
I1
sS'affected'
p3959
I2
sS'sex-as-war'
p3960
I1
sS'fragment'
p3961
I1
sS'jerking'
p3962
I2
sS'trail'
p3963
I1
sS'break'
p3964
I3
sS'band'
p3965
I1
sS'bang'
p3966
I1
sS'sentimental'
p3967
I3
sS'repulsive'
p3968
I2
sS'lifelong'
p3969
I1
sS'bread'
p3970
I1
sS'gloom'
p3971
I1
sS'erotically'
p3972
I1
sS'rocky'
p3973
I1
sS'psychologizing'
p3974
I1
sS'potatoes'
p3975
I1
sS'reasonably'
p3976
I2
sS'routines'
p3977
I1
sS'alternately'
p3978
I2
sS'chuck'
p3979
I1
sS'explode'
p3980
I1
sS'filling'
p3981
I1
sS'signing'
p3982
I1
sS'opera-ish'
p3983
I1
sS'meets'
p3984
I1
sS'por'
p3985
I2
sS'crimes'
p3986
I2
sS'diane'
p3987
I1
sS'satellite'
p3988
I1
sS'january'
p3989
I1
sS'prolonged'
p3990
I1
sS'combining'
p3991
I1
sS'ghosts'
p3992
I1
sS'actioner'
p3993
I1
sS'saturday'
p3994
I2
sS'shadyac'
p3995
I1
sS'reminding'
p3996
I1
sS'burlap'
p3997
I1
sS'network'
p3998
I2
sS'driving'
p3999
I1
sS'god'
p4000
I3
sS'rape-payback'
p4001
I1
sS'diesel'
p4002
I1
sS'two-hour'
p4003
I1
sS'strangers'
p4004
I3
sS'forte'
p4005
I1
sS'undone'
p4006
I2
sS'remorse'
p4007
I1
sS'medicine'
p4008
I1
sS'self-important'
p4009
I1
sS'sliding'
p4010
I1
sS'hard-partying'
p4011
I1
sS'stiff-upper-lip'
p4012
I1
sS'funny--not'
p4013
I1
sS'confirms'
p4014
I1
sS'free'
p4015
I3
sS'standard'
p4016
I4
sS'techno'
p4017
I2
sS'icky'
p4018
I1
sS'sadly'
p4019
I3
sS'wanted'
p4020
I6
sS'blob'
p4021
I1
sS'monkey'
p4022
I1
sS'anthropomorphic'
p4023
I1
sS'unfulfilled'
p4024
I2
sS'created'
p4025
I1
sS'writhing'
p4026
I1
sS'days'
p4027
I6
sS'nebrida'
p4028
I1
sS'creates'
p4029
I2
sS'lousy'
p4030
I5
sS'labored'
p4031
I3
sS'riffs'
p4032
I1
sS'hopeless'
p4033
I2
sS'plummets'
p4034
I1
sS'onto'
p4035
I3
sS'martial-arts'
p4036
I1
sS'recite'
p4037
I2
sS'organize'
p4038
I1
sS'render'
p4039
I1
sS'tear-drenched'
p4040
I1
sS'hemlock'
p4041
I1
sS'miscalculation'
p4042
I2
sS'mythmaking'
p4043
I1
sS'fantasy'
p4044
I3
sS'philosophical'
p4045
I2
sS'another'
p4046
I34
sS'smugly'
p4047
I1
sS'categorize'
p4048
I1
sS'comic'
p4049
I6
sS'mojo'
p4050
I1
sS'lulled'
p4051
I1
sS'toy'
p4052
I1
sS'ten'
p4053
I2
sS'pabulum'
p4054
I1
sS'parting'
p4055
I1
sS'top'
p4056
I2
sS'protracted'
p4057
I1
sS'fiction'
p4058
I2
sS'--with'
p4059
I1
sS'six-time'
p4060
I1
sS'airs'
p4061
I2
sS'ballistic'
p4062
I2
sS'observations'
p4063
I1
sS'cassavetes'
p4064
I1
sS'windtalkers'
p4065
I5
sS'corpus'
p4066
I1
sS'john'
p4067
I16
sS'dogs'
p4068
I3
sS'unbroken'
p4069
I1
sS'insightful'
p4070
I1
sS'urban'
p4071
I2
sS'murder'
p4072
I3
sS'happily'
p4073
I1
sS'arising'
p4074
I1
sS'serve'
p4075
I3
sS'conspicuously'
p4076
I1
sS'rejected'
p4077
I1
sS'scant'
p4078
I1
sS'dylan'
p4079
I2
sS'western'
p4080
I1
sS'wasted'
p4081
I4
sS'preposterous'
p4082
I2
sS'unsaid'
p4083
I1
sS'light-footed'
p4084
I1
sS'bebe'
p4085
I1
sS'mercy'
p4086
I1
sS'ferocity'
p4087
I1
sS'fuelled'
p4088
I1
sS'target'
p4089
I7
sS'glorified'
p4090
I2
sS'bloated'
p4091
I1
sS'scenes'
p4092
I21
sS'seated'
p4093
I1
sS'godard'
p4094
I2
sS'precocious'
p4095
I1
sS'flame'
p4096
I3
sS'historical'
p4097
I7
sS'cliff-notes'
p4098
I1
sS'similar'
p4099
I3
sS'powers'
p4100
I3
sS'minus'
p4101
I1
sS'spoiler'
p4102
I1
sS'screenplay'
p4103
I10
sS'bridge'
p4104
I1
sS'fashion'
p4105
I3
sS'rewrite'
p4106
I1
sS'ran'
p4107
I1
sS'ram'
p4108
I1
sS'sleight-of-hand'
p4109
I1
sS'return'
p4110
I1
sS'raw'
p4111
I2
sS'rat'
p4112
I1
sS'manner'
p4113
I3
sS'rap'
p4114
I2
sS'stalls'
p4115
I1
sS'stomach'
p4116
I3
sS'high-minded'
p4117
I1
sS'relatively'
p4118
I4
sS'triangle'
p4119
I3
sS'forced'
p4120
I9
sS'ponder'
p4121
I1
sS'strength'
p4122
I2
sS'genuine'
p4123
I5
sS'impeccable'
p4124
I1
sS'relayed'
p4125
I1
sS'convenient'
p4126
I3
sS'latter'
p4127
I1
sS'-'
p4128
I14
sS'snow'
p4129
I2
sS'predominantly'
p4130
I1
sS'mean-spirited'
p4131
I3
sS'subjects'
p4132
I2
sS'derek'
p4133
I1
sS'forces'
p4134
I2
sS'laughed'
p4135
I2
sS'so-inept-'
p4136
I1
sS'clunky'
p4137
I3
sS'circles'
p4138
I1
sS'mcklusky'
p4139
I1
sS'nobody'
p4140
I2
sS'maiden'
p4141
I1
sS'though'
p4142
I21
sS'unashamedly'
p4143
I2
sS'assesses'
p4144
I1
sS'ricture'
p4145
I1
sS'involving'
p4146
I5
sS'glimpses'
p4147
I1
sS'mannerisms'
p4148
I2
sS'plenty'
p4149
I4
sS'scripts'
p4150
I1
sS'exercises'
p4151
I1
sS'grave'
p4152
I2
sS'peevish'
p4153
I1
sS'unending'
p4154
I1
sS'paradigm'
p4155
I1
sS'treats'
p4156
I2
sS'calculated'
p4157
I4
sS'devastating'
p4158
I1
sS'metal'
p4159
I1
sS'rancid'
p4160
I1
sS'reputation'
p4161
I1
sS'enterprise'
p4162
I4
sS'aggrandizing'
p4163
I1
sS'profundity'
p4164
I1
sS'curio'
p4165
I1
sS'notion'
p4166
I3
sS'reserve'
p4167
I1
sS'decidedly'
p4168
I2
sS'inspire'
p4169
I3
sS'saga'
p4170
I2
sS'queen'
p4171
I8
sS'precarious'
p4172
I1
sS'aspires'
p4173
I2
sS'brief'
p4174
I1
sS'dupe'
p4175
I1
sS'colors'
p4176
I1
sS'big-screen'
p4177
I4
sS'dopey'
p4178
I1
sS'subtle'
p4179
I4
sS'enjoyed'
p4180
I2
sS'make'
p4181
I50
sS'sharks'
p4182
I1
sS'crush'
p4183
I6
sS'morlocks'
p4184
I1
sS'resemblance'
p4185
I1
sS'painfully'
p4186
I2
sS'pinocchio'
p4187
I6
sS'situations'
p4188
I5
sS'farenheit'
p4189
I1
sS'screening'
p4190
I2
sS'tropic'
p4191
I1
sS'adequate'
p4192
I1
sS'salton'
p4193
I1
sS'personality'
p4194
I2
sS'predecessor'
p4195
I1
sS'mixture'
p4196
I1
sS'de'
p4197
I18
sS'watch'
p4198
I24
sS'banderas-lucy'
p4199
I1
sS'yielded'
p4200
I1
sS'vidgame'
p4201
I1
sS'haunted'
p4202
I4
sS'downtime'
p4203
I1
sS'report'
p4204
I6
sS'knocks'
p4205
I1
sS'nasty'
p4206
I1
sS'sabrina'
p4207
I1
sS'runs'
p4208
I4
sS'overbearing'
p4209
I2
sS'heartstring'
p4210
I1
sS'covering'
p4211
I2
sS'idiotic'
p4212
I2
sS'guns'
p4213
I3
sS'twice'
p4214
I4
sS'shots'
p4215
I5
sS'wannabe'
p4216
I4
sS'explanations'
p4217
I1
sS'steam'
p4218
I2
sS'thumbs'
p4219
I1
sS'penance'
p4220
I2
sS'captures'
p4221
I1
sS'swept'
p4222
I3
sS'not-so-funny'
p4223
I1
sS'prosaic'
p4224
I1
sS'depends'
p4225
I1
sS'miserable'
p4226
I3
sS'yes'
p4227
I6
sS'gentility'
p4228
I1
sS'capacity'
p4229
I1
sS'immaculately'
p4230
I1
sS'analyze'
p4231
I3
sS'away'
p4232
I18
sS'afloat'
p4233
I1
sS'yet'
p4234
I10
sS'arcana'
p4235
I1
sS'mud'
p4236
I1
sS'mug'
p4237
I1
sS'unable'
p4238
I3
sS'tainted'
p4239
I1
sS'drawn'
p4240
I3
sS'misguided'
p4241
I1
sS'discovery'
p4242
I1
sS'warmed-over'
p4243
I1
sS'terms'
p4244
I4
sS'confusion'
p4245
I2
sS'handful'
p4246
I2
sS'packaged'
p4247
I1
sS'however'
p4248
I7
sS'neurotics'
p4249
I1
sS'teenaged'
p4250
I1
sS'wear'
p4251
I1
sS'unfold'
p4252
I1
sS'disservice'
p4253
I1
sS'dedication'
p4254
I1
sS'news'
p4255
I2
sS'jonah'
p4256
I1
sS'drowsy'
p4257
I1
sS'kitchen'
p4258
I1
sS'faced'
p4259
I1
sS'cop'
p4260
I3
sS'essentially'
p4261
I4
sS'rhythms'
p4262
I2
sS'cow'
p4263
I1
sS'cox'
p4264
I2
sS'ill'
p4265
I1
sS'blimp'
p4266
I1
sS'didactic'
p4267
I2
sS'games'
p4268
I4
sS'athleticism'
p4269
I1
sS'conceits'
p4270
I1
sS'faces'
p4271
I2
sS'expense'
p4272
I2
sS'com'
p4273
I3
sS'con'
p4274
I3
sS'clowns'
p4275
I1
sS'tone'
p4276
I5
sS'unclear'
p4277
I1
sS'character'
p4278
I28
sS'condescending'
p4279
I1
sS'stillborn'
p4280
I1
sS'maudlin'
p4281
I5
sS'tony'
p4282
I2
sS'oblivious'
p4283
I1
sS'trust'
p4284
I2
sS'hitler'
p4285
I1
sS'speak'
p4286
I1
sS'petty'
p4287
I2
sS'trickery'
p4288
I1
sS'ropes'
p4289
I1
sS'alchemy'
p4290
I1
sS'quickly'
p4291
I7
sS'becalmed'
p4292
I1
sS'charisma'
p4293
I2
sS'bees'
p4294
I1
sS'expected'
p4295
I2
sS'half-dimensional'
p4296
I1
sS'dozens'
p4297
I1
sS'gamely'
p4298
I1
sS'families'
p4299
I3
sS'drugs'
p4300
I3
sS'xxx'
p4301
I2
sS'excite'
p4302
I1
sS'genres'
p4303
I3
sS'coherent'
p4304
I5
sS'craft'
p4305
I1
sS'catch'
p4306
I4
sS'postmodern'
p4307
I1
sS'save'
p4308
I2
sS'conviction'
p4309
I1
sS'blip'
p4310
I2
sS'apprehension'
p4311
I1
sS'multi-million'
p4312
I1
sS'air'
p4313
I8
sS'over-romanticize'
p4314
I1
sS'comfortably'
p4315
I1
sS'teachers'
p4316
I1
sS'fantasma'
p4317
I1
sS'aid'
p4318
I1
sS'voice'
p4319
I7
sS'mistake'
p4320
I3
sS'paeans'
p4321
I1
sS'schaeffer'
p4322
I2
sS'provocative'
p4323
I3
sS'allows'
p4324
I3
sS'sticker'
p4325
I1
sS'dumped'
p4326
I2
sS'sting'
p4327
I1
sS'audrey'
p4328
I1
sS'skipping'
p4329
I1
sS'dizzy'
p4330
I1
sS'brutal'
p4331
I4
sS'appalling'
p4332
I3
sS'not-so-hot'
p4333
I1
sS'pyrotechnics'
p4334
I4
sS'perform'
p4335
I1
sS'suggest'
p4336
I1
sS'wound'
p4337
I1
sS'jerry'
p4338
I2
sS'beside'
p4339
I1
sS'complex'
p4340
I6
sS'avoids'
p4341
I1
sS'several'
p4342
I9
sS'convictions'
p4343
I1
sS'independent'
p4344
I2
sS'traffics'
p4345
I1
sS'stiffness'
p4346
I1
sS'schumacher'
p4347
I1
sS'hang'
p4348
I3
sS'evil'
p4349
I5
sS'hand'
p4350
I5
sS'fish-out-of-water'
p4351
I1
sS'depict'
p4352
I1
sS'brain-slappingly'
p4353
I1
sS'characters'
p4354
I64
sS'groundbreaking'
p4355
I2
sS'palpable'
p4356
I2
sS'crushingly'
p4357
I1
sS'sitcom-worthy'
p4358
I1
sS'newfangled'
p4359
I1
sS'prescribed'
p4360
I1
sS'knockoff'
p4361
I1
sS'kept'
p4362
I2
sS'episodic'
p4363
I2
sS'possessed'
p4364
I1
sS'humble'
p4365
I1
sS'milks'
p4366
I1
sS'ragged'
p4367
I1
sS'campy'
p4368
I3
sS'greatest'
p4369
I2
sS'mother'
p4370
I2
sS'alarms'
p4371
I1
sS'alabama'
p4372
I2
sS'musical'
p4373
I2
sS'seasonal'
p4374
I1
sS'unified'
p4375
I1
sS'reeks'
p4376
I1
sS'solaris'
p4377
I3
sS'background'
p4378
I3
sS'true'
p4379
I13
sS'physique'
p4380
I1
sS'enjoy'
p4381
I10
sS'bugged'
p4382
I1
sS'thanks'
p4383
I1
sS'victim'
p4384
I3
sS'cleverly'
p4385
I3
sS'a-knocking'
p4386
I1
sS'poses'
p4387
I1
sS'hills'
p4388
I1
sS'elm'
p4389
I1
sS'cherry'
p4390
I1
sS'thick'
p4391
I1
sS'genial-rogue'
p4392
I1
sS'shout'
p4393
I2
sS'spread'
p4394
I2
sS'muse'
p4395
I1
sS'advanced'
p4396
I1
sS'carnahan'
p4397
I1
sS'humanity'
p4398
I3
sS'photographed'
p4399
I2
sS'actresses'
p4400
I3
sS'coarseness'
p4401
I1
sS'thankfully'
p4402
I1
sS'insensitive'
p4403
I1
sS'clayburgh'
p4404
I3
sS'africa'
p4405
I1
sS'right-wing'
p4406
I1
sS'retread'
p4407
I3
sS'cultural'
p4408
I3
sS'quicksand'
p4409
I1
sS'roach'
p4410
I1
sS'burns'
p4411
I4
sS'characterized'
p4412
I2
sS'retreat'
p4413
I1
sS'apart'
p4414
I6
sS'exxon'
p4415
I1
sS'appearing'
p4416
I1
sS'brutality'
p4417
I1
sS'gift'
p4418
I2
sS'cooler'
p4419
I1
sS'gifted'
p4420
I1
sS'dishonest'
p4421
I2
sS'soap'
p4422
I12
sS'unsuspecting'
p4423
I1
sS'zeal'
p4424
I2
sS'indoors'
p4425
I1
sS'hunk'
p4426
I1
sS'splendor'
p4427
I1
sS'night'
p4428
I6
sS'lapses'
p4429
I2
sS'reams'
p4430
I1
sS'stereotype'
p4431
I2
sS'frustrations'
p4432
I1
sS'flatter'
p4433
I1
sS'unnecessary'
p4434
I3
sS'clubs'
p4435
I1
sS'escapa'
p4436
I1
sS'usher'
p4437
I1
sS'election'
p4438
I1
sS'kieslowski'
p4439
I1
sS'critique'
p4440
I1
sS'bemused'
p4441
I1
sS'bore'
p4442
I9
sS'guess'
p4443
I1
sS'confusing'
p4444
I2
sS'congratulate'
p4445
I1
sS'humor'
p4446
I22
sS'the-blanks'
p4447
I1
sS'comments'
p4448
I1
sS'filming'
p4449
I1
sS'squeeze'
p4450
I1
sS'denied'
p4451
I1
sS'self-consciousness'
p4452
I1
sS'convict'
p4453
I1
sS'christmas'
p4454
I2
sS'participation'
p4455
I1
sS'officer'
p4456
I1
sS'core'
p4457
I2
sS'columbus'
p4458
I1
sS'biopic'
p4459
I2
sS'zombies'
p4460
I1
sS'screeching-metal'
p4461
I1
sS'deleted'
p4462
I1
sS'corn'
p4463
I1
sS'pose'
p4464
I1
sS'blooper'
p4465
I1
sS'over-indulgent'
p4466
I1
sS'eye'
p4467
I3
sS'peep'
p4468
I1
sS'possesses'
p4469
I1
sS'properties'
p4470
I1
sS'meyer'
p4471
I1
sS'ga-zillionth'
p4472
I1
sS'attacks'
p4473
I1
sS'months'
p4474
I1
sS'courtesy'
p4475
I1
sS'dinner'
p4476
I1
sS'misleading'
p4477
I1
sS'plus'
p4478
I1
sS'none-too-original'
p4479
I1
sS'efforts'
p4480
I3
sS'primitive'
p4481
I2
sS'playboy-mansion'
p4482
I1
sS'presence'
p4483
I6
sS'wasting'
p4484
I1
sS'pays'
p4485
I1
sS'thoughts'
p4486
I1
sS'profession'
p4487
I1
sS'bound'
p4488
I1
sS'frankness'
p4489
I1
sS'two'
p4490
I23
sS'rendering'
p4491
I1
sS'working-class'
p4492
I2
sS'surfaces'
p4493
I1
sS'dean'
p4494
I1
sS'abel'
p4495
I1
sS'imbecilic'
p4496
I1
sS'stumble'
p4497
I1
sS'strangely'
p4498
I3
sS'wan'
p4499
I1
sS'categorization'
p4500
I1
sS'deal'
p4501
I3
sS'buffoons'
p4502
I1
sS'segment'
p4503
I2
sS'unfocused'
p4504
I3
sS'fight'
p4505
I4
sS'stuck'
p4506
I3
sS'quirks'
p4507
I3
sS'fluff-ball'
p4508
I1
sS'way'
p4509
I45
sS'quirky'
p4510
I8
sS'war'
p4511
I7
sS'fizz'
p4512
I2
sS'questionable'
p4513
I2
sS'head'
p4514
I10
sS'washed'
p4515
I1
sS'steers'
p4516
I1
sS'abrams'
p4517
I1
sS'becoming'
p4518
I1
sS'sketched'
p4519
I1
sS'heinous'
p4520
I2
sS'mysterious'
p4521
I1
sS'tumbleweeds'
p4522
I1
sS'hear'
p4523
I3
sS'elderly'
p4524
I1
sS'sustained'
p4525
I1
sS'jennifer'
p4526
I2
sS'cheech'
p4527
I1
sS'absent'
p4528
I2
sS'rollerblades'
p4529
I1
sS'portions'
p4530
I2
sS'slo-mo'
p4531
I2
sS'muster'
p4532
I2
sS'villeneuve'
p4533
I1
sS'high-powered'
p4534
I1
sS'mtv'
p4535
I2
sS'ruined'
p4536
I1
sS'crystal'
p4537
I2
sS'heartstrings'
p4538
I1
sS'unfulfilling'
p4539
I2
sS'francamente'
p4540
I1
sS'co-opted'
p4541
I1
sS'emotional'
p4542
I17
sS'nerds'
p4543
I2
sS'worshipful'
p4544
I1
sS'promises'
p4545
I1
sS'moore'
p4546
I1
sS'theorizing'
p4547
I1
sS'nudity'
p4548
I1
sS'abstract'
p4549
I1
sS'escape'
p4550
I6
sS'wretched'
p4551
I1
sS'evidence'
p4552
I2
sS'guessed'
p4553
I1
sS'promised'
p4554
I1
sS'acclaimed'
p4555
I1
sS'believable'
p4556
I2
sS'shiner'
p4557
I1
sS'chuckling'
p4558
I1
sS'constructed'
p4559
I2
sS'looked'
p4560
I3
sS'faithful'
p4561
I1
sS'dying'
p4562
I1
sS'whereas'
p4563
I1
sS'disloyal'
p4564
I1
sS'piffle'
p4565
I2
sS'reality'
p4566
I11
sS'suburban'
p4567
I1
sS'interested'
p4568
I3
sS'evasive'
p4569
I1
sS'test'
p4570
I4
sS'cloaked'
p4571
I1
sS'brisk'
p4572
I2
sS'undeniably'
p4573
I1
sS'hackneyed'
p4574
I6
sS'permitting'
p4575
I1
sS'brothers'
p4576
I2
sS'tasteful'
p4577
I2
sS'penotti'
p4578
I1
sS'welcome'
p4579
I5
sS'convincing'
p4580
I4
sS'update'
p4581
I2
sS'camaraderie'
p4582
I2
sS'notting'
p4583
I1
sS'scores'
p4584
I2
sS'dullest'
p4585
I2
sS'troupe'
p4586
I1
sS'flushed'
p4587
I1
sS'detox'
p4588
I1
sS'carries'
p4589
I1
sS'amusement'
p4590
I1
sS'younger'
p4591
I4
sS'faster'
p4592
I3
sS'andys'
p4593
I1
sS'bestowed'
p4594
I1
sS'navel'
p4595
I1
sS'canines'
p4596
I1
sS'together'
p4597
I11
sS'loyal'
p4598
I1
sS'serious'
p4599
I9
sS'backward'
p4600
I1
sS'paced'
p4601
I2
sS'songs'
p4602
I2
sS'concept'
p4603
I7
sS'vampires'
p4604
I1
sS'deftly'
p4605
I2
sS'impression'
p4606
I3
sS'dance'
p4607
I1
sS'rob'
p4608
I3
sS'guei'
p4609
I1
sS'switches'
p4610
I1
sS'inspirations'
p4611
I1
sS'ice'
p4612
I3
sS'battle'
p4613
I3
sS'remarkably'
p4614
I1
sS'rot'
p4615
I1
sS'row'
p4616
I1
sS'contributing'
p4617
I1
sS'certainly'
p4618
I13
sS'zone'
p4619
I3
sS'extra-dry'
p4620
I1
sS'honoring'
p4621
I1
sS'white-trash'
p4622
I1
sS'flash'
p4623
I3
sS'fairy-tale'
p4624
I1
sS'anarchic'
p4625
I1
sS'abhorrent'
p4626
I1
sS'chances'
p4627
I1
sS'compensate'
p4628
I2
sS'ararat'
p4629
I1
sS'rhythm'
p4630
I2
sS'text'
p4631
I3
sS'terror'
p4632
I1
sS'hammers'
p4633
I1
sS'naturalistic'
p4634
I1
sS'overwrought'
p4635
I2
sS'dey'
p4636
I1
sS'none'
p4637
I11
sS'seemingly'
p4638
I1
sS'sloppy'
p4639
I4
sS'liability'
p4640
I1
sS'screenwriting'
p4641
I4
sS'unfathomable'
p4642
I1
sS'anonymous'
p4643
I1
sS'feel-good'
p4644
I1
sS'trouble'
p4645
I4
sS'salient'
p4646
I1
sS'feeble'
p4647
I1
sS'margarita'
p4648
I1
sS'oftentimes'
p4649
I1
sS'aggressively'
p4650
I1
sS'impressive'
p4651
I4
sS'trifecta'
p4652
I1
sS'presented'
p4653
I1
sS'turns'
p4654
I13
sS'embarrassment'
p4655
I4
sS'fragile'
p4656
I1
sS'gun'
p4657
I1
sS'cloudy'
p4658
I1
sS'standards'
p4659
I4
sS'decipherable'
p4660
I1
sS'espionage'
p4661
I1
sS'yale'
p4662
I1
sS'quick'
p4663
I3
sS'guy'
p4664
I11
sS'rehashed'
p4665
I1
sS'added'
p4666
I1
sS'trailer-trash'
p4667
I1
sS'distasteful'
p4668
I3
sS'boatload'
p4669
I1
sS'regret'
p4670
I2
sS'porn'
p4671
I2
sS'moat'
p4672
I1
sS'repetitive'
p4673
I3
sS'filmmaking'
p4674
I8
sS'discover'
p4675
I1
sS'improbability'
p4676
I1
sS'radar'
p4677
I2
sS'utter'
p4678
I5
sS'chicken'
p4679
I1
sS'substitute'
p4680
I2
sS'enticing'
p4681
I2
sS'unravels'
p4682
I1
sS'grace-in-rebellion'
p4683
I1
sS'appear'
p4684
I3
sS'believability'
p4685
I2
sS'quick-cut'
p4686
I1
sS'derrida'
p4687
I1
sS'coming-of-age'
p4688
I3
sS'goes'
p4689
I14
sS'appeal'
p4690
I4
sS'moviegoers'
p4691
I2
sS'scripted'
p4692
I1
sS'hairy'
p4693
I1
sS'collateral'
p4694
I3
sS'brawn'
p4695
I1
sS'unsure'
p4696
I2
sS'slackers'
p4697
I1
sS'water'
p4698
I5
sS'entertain'
p4699
I2
sS'baseball'
p4700
I1
sS'groups'
p4701
I1
sS'mugs'
p4702
I2
sS'teacher'
p4703
I2
sS'change'
p4704
I4
sS'post-modern'
p4705
I1
sS'buck'
p4706
I1
sS'anti-kieslowski'
p4707
I1
sS'bygone'
p4708
I2
sS'thirty'
p4709
I1
sS'eke'
p4710
I1
sS'craziness'
p4711
I1
sS'guilty'
p4712
I3
sS'sold-out'
p4713
I1
sS'franklin'
p4714
I1
sS'child-rearing'
p4715
I1
sS'usually'
p4716
I4
sS'resonance'
p4717
I3
sS'weird'
p4718
I7
sS'plotted'
p4719
I3
sS'gorgeously'
p4720
I1
sS'scorpion'
p4721
I1
sS'ill-informed'
p4722
I1
sS'humour'
p4723
I3
sS'extra'
p4724
I1
sS'tuxedo'
p4725
I4
sS'bullock'
p4726
I1
sS'tv-to-movie'
p4727
I1
sS'paralyzed'
p4728
I1
sS'imaginable'
p4729
I2
sS'rarely'
p4730
I6
sS'crisis'
p4731
I1
sS'market'
p4732
I3
sS'sledgehammer'
p4733
I1
sS'plotline'
p4734
I1
sS'middle-age'
p4735
I1
sS'ayatollah'
p4736
I1
sS'sports'
p4737
I3
sS'cinta'
p4738
I2
sS'live'
p4739
I5
sS'approach'
p4740
I9
sS'prey'
p4741
I2
sS'memory'
p4742
I4
sS'schlock'
p4743
I2
sS'australian'
p4744
I1
sS'intolerable'
p4745
I1
sS'angels'
p4746
I1
sS'today'
p4747
I2
sS'smeared'
p4748
I1
sS'entrance'
p4749
I1
sS'credulity'
p4750
I1
sS'riot'
p4751
I2
sS'sessions'
p4752
I2
sS'club'
p4753
I3
sS'clue'
p4754
I2
sS'fingered'
p4755
I3
sS'insights'
p4756
I2
sS'arthouse'
p4757
I1
sS'graphic'
p4758
I2
sS'catechism'
p4759
I1
sS'defeats'
p4760
I2
sS'car'
p4761
I9
sS'pie-like'
p4762
I1
sS'rap-metal'
p4763
I1
sS'cat'
p4764
I1
sS'latrine'
p4765
I1
sS'cal'
p4766
I2
sS'woefully'
p4767
I1
sS'rehashes'
p4768
I1
sS'equilibrium'
p4769
I1
sS'laughter'
p4770
I4
sS'mild-mannered'
p4771
I1
sS'lighthearted'
p4772
I1
sS'heart'
p4773
I14
sS'performer'
p4774
I1
sS'percolates'
p4775
I1
sS'figure'
p4776
I3
sS'garbled'
p4777
I1
sS'amidst'
p4778
I1
sS'vicarious'
p4779
I1
sS'topic'
p4780
I1
sS'heard'
p4781
I2
sS'rowling'
p4782
I1
sS'posing'
p4783
I1
sS'performed'
p4784
I1
sS'pond'
p4785
I1
sS're-hash'
p4786
I1
sS'capra'
p4787
I1
sS'intelligible'
p4788
I1
sS'kumble'
p4789
I1
sS'painkillers'
p4790
I1
sS'swedish'
p4791
I1
sS'redundancy'
p4792
I1
sS'infantile'
p4793
I3
sS'mpaa'
p4794
I1
sS'discussion'
p4795
I1
sS'means'
p4796
I2
sS'flourishes'
p4797
I1
sS'urinates'
p4798
I1
sS'write'
p4799
I1
sS'sundance'
p4800
I1
sS'criterion'
p4801
I1
sS'familiar'
p4802
I12
sS'late-inning'
p4803
I1
sS'product'
p4804
I7
sS'paramount'
p4805
I1
sS'contorting'
p4806
I1
sS'cocktail'
p4807
I2
sS'dive'
p4808
I1
sS'southern'
p4809
I3
sS'needs'
p4810
I8
sS'brazen'
p4811
I1
sS'informs'
p4812
I1
sS'produce'
p4813
I4
sS'cartoons'
p4814
I1
sS'heroes'
p4815
I1
sS'dahmer'
p4816
I3
sS'nomination'
p4817
I2
sS'avengers'
p4818
I1
sS'unbelievably'
p4819
I1
sS'indifferently'
p4820
I1
sS'remember'
p4821
I3
sS'deve'
p4822
I1
sS'whenever'
p4823
I1
sS'amuse'
p4824
I2
sS'explicit'
p4825
I1
sS'inform'
p4826
I2
sS'ones'
p4827
I2
sS'lagoon'
p4828
I1
sS'offend'
p4829
I2
sS'depress'
p4830
I1
sS'pulchritude'
p4831
I1
sS'sweet-and-sour'
p4832
I1
sS'idiosyncratic'
p4833
I1
sS'typical'
p4834
I5
sS'howard'
p4835
I2
sS'serving'
p4836
I3
sS'heavy-handedness'
p4837
I1
sS'indeed'
p4838
I6
sS'midnight'
p4839
I1
sS'dim-witted'
p4840
I2
sS'brain'
p4841
I5
sS'genteel'
p4842
I2
sS'motions'
p4843
I4
sS'cold'
p4844
I13
sS'still'
p4845
I19
sS'earplugs'
p4846
I1
sS'trifle'
p4847
I3
sS'swank'
p4848
I1
sS'wallace'
p4849
I2
sS'reacting'
p4850
I1
sS'spy'
p4851
I7
sS'forms'
p4852
I1
sS'window'
p4853
I4
sS'offers'
p4854
I12
sS'pandering'
p4855
I2
sS'suey'
p4856
I1
sS'dreadfully'
p4857
I1
sS'hanks'
p4858
I1
sS'endless'
p4859
I3
sS'wattage'
p4860
I1
sS'happened'
p4861
I1
sS'qualifies'
p4862
I1
sS'disparate'
p4863
I2
sS'fling'
p4864
I1
sS'nod'
p4865
I2
sS'less-than-compelling'
p4866
I1
sS'lumbering'
p4867
I2
sS'introduce'
p4868
I1
sS'underneath'
p4869
I1
sS'billy'
p4870
I2
sS'wince-inducing'
p4871
I1
sS'litmus'
p4872
I1
sS'unimpressive'
p4873
I1
sS'half'
p4874
I11
sS'ritchie'
p4875
I3
sS'rumblings'
p4876
I1
sS'discuss'
p4877
I1
sS'enacted'
p4878
I1
sS'inversion'
p4879
I1
sS'first-rate'
p4880
I1
sS'name'
p4881
I3
sS'respectable'
p4882
I1
sS'opera'
p4883
I13
sS'james'
p4884
I4
sS'drop'
p4885
I3
sS'sensibilities'
p4886
I1
sS'academy'
p4887
I2
sS'chuckles'
p4888
I1
sS'outrageously'
p4889
I1
sS'entirely'
p4890
I9
sS'realism'
p4891
I4
sS'plot-lines'
p4892
I1
sS'em'
p4893
I2
sS'sugary'
p4894
I3
sS'en'
p4895
I1
sS'poetically'
p4896
I1
sS'significantly'
p4897
I1
sS'mixed-up'
p4898
I1
sS'macaroni'
p4899
I1
sS'directing'
p4900
I2
sS'hitmen'
p4901
I1
sS'ham-fisted'
p4902
I2
sS'fires'
p4903
I1
sS'year'
p4904
I12
sS'et'
p4905
I1
sS'happen'
p4906
I2
sS'hoary'
p4907
I2
sS'exaggeration'
p4908
I1
sS'distended'
p4909
I1
sS'es'
p4910
I4
sS'tried'
p4911
I2
sS'flaccid'
p4912
I1
sS'sustains'
p4913
I2
sS'xfl'
p4914
I1
sS'curmudgeonly'
p4915
I1
sS'everything'
p4916
I13
sS'space'
p4917
I4
sS'amateurishly'
p4918
I2
sS'angst'
p4919
I1
sS'hastily'
p4920
I1
sS'looking'
p4921
I11
sS'stallone'
p4922
I1
sS'receiving'
p4923
I1
sS'shows'
p4924
I10
sS'costumes'
p4925
I4
sS'theory'
p4926
I2
sS'infidelity'
p4927
I1
sS'existentialism'
p4928
I1
sS'satanic'
p4929
I1
sS'boobs'
p4930
I1
sS'jaglom'
p4931
I1
sS'carl'
p4932
I1
sS'excesses'
p4933
I3
sS'nightmarish'
p4934
I1
sS'marine'
p4935
I1
sS'inevitable'
p4936
I2
sS'card'
p4937
I1
sS'care'
p4938
I22
sS'gerardo'
p4939
I1
sS'panoramic'
p4940
I1
sS'british'
p4941
I5
sS'honest'
p4942
I2
sS'motion'
p4943
I3
sS'turn'
p4944
I8
sS'butterflies'
p4945
I1
sS'place'
p4946
I12
sS'amazingly'
p4947
I2
sS'promotion'
p4948
I1
sS'turd'
p4949
I1
sS'suffice'
p4950
I1
sS'spectacularly'
p4951
I1
sS'blind'
p4952
I2
sS'soderbergh'
p4953
I2
sS'benefited'
p4954
I1
sS'achingly'
p4955
I2
sS'surviving'
p4956
I2
sS'anomie'
p4957
I2
sS'loosely-connected'
p4958
I1
sS'omitted'
p4959
I1
sS'incongruous'
p4960
I1
sS'vainglorious'
p4961
I1
sS'clumsy'
p4962
I5
sS'desiccated'
p4963
I1
sS'impossible'
p4964
I8
sS'message'
p4965
I8
sS'oedekerk'
p4966
I1
sS'george'
p4967
I3
sS'size'
p4968
I1
sS'libidinous'
p4969
I1
sS'given'
p4970
I10
sS'necessarily'
p4971
I2
sS'sheet'
p4972
I1
sS'action-packed'
p4973
I1
sS'thankless'
p4974
I1
sS'remotely'
p4975
I3
sS'returns'
p4976
I1
sS'tragic'
p4977
I3
sS'lobbyists'
p4978
I1
sS'legally'
p4979
I1
sS'white'
p4980
I2
sS'circa'
p4981
I1
sS'national'
p4982
I4
sS'friend'
p4983
I3
sS'rollerball'
p4984
I4
sS'holden'
p4985
I1
sS'exploring'
p4986
I2
sS'showdown'
p4987
I1
sS'prissy'
p4988
I1
sS'mostly'
p4989
I9
sS'reverie'
p4990
I1
sS'cheap-looking'
p4991
I1
sS'brains'
p4992
I2
sS'stylized'
p4993
I2
sS'cops'
p4994
I1
sS'transgressive'
p4995
I1
sS'enigma'
p4996
I1
sS'seduces'
p4997
I1
sS'flowers'
p4998
I1
sS'outwardly'
p4999
I1
sS'intrinsically'
p5000
I1
sS'television'
p5001
I5
sS'underwritten'
p5002
I1
sS'unfortunately'
p5003
I9
sS'comic-strip'
p5004
I1
sS'require'
p5005
I1
sS'optimism'
p5006
I1
sS'r'
p5007
I2
sS'aesthetic'
p5008
I2
sS'sub-sophomoric'
p5009
I1
sS'synthesis'
p5010
I1
sS'be-all-end-all'
p5011
I1
sS'hairline'
p5012
I1
sS'michell'
p5013
I2
sS'angel'
p5014
I1
sS'pro'
p5015
I1
sS'slap'
p5016
I4
sS'straddles'
p5017
I1
sS'already'
p5018
I16
sS'medium'
p5019
I1
sS'suspense'
p5020
I10
sS'rent'
p5021
I5
sS'paint-by-numbers'
p5022
I1
sS'amateur'
p5023
I1
sS'insatiable'
p5024
I1
sS'dragon'
p5025
I2
sS'gutterball'
p5026
I1
sS'batting'
p5027
I1
sS'lumpy'
p5028
I1
sS'astonishingly'
p5029
I1
sS'offering'
p5030
I3
sS'coal'
p5031
I1
sS'describe'
p5032
I2
sS'ideas'
p5033
I11
sS'terrific'
p5034
I4
sS'equipment'
p5035
I1
sS'emphasis'
p5036
I1
sS'animation'
p5037
I8
sS'objective'
p5038
I1
sS'improvisations'
p5039
I1
sS'surf'
p5040
I1
sS'urge'
p5041
I3
sS'begin'
p5042
I2
sS'sure'
p5043
I11
sS'indelible'
p5044
I1
sS'price'
p5045
I6
sS'falls'
p5046
I16
sS'importantly'
p5047
I1
sS'landing'
p5048
I1
sS'feardotcom'
p5049
I1
sS'stunts'
p5050
I4
sS'forever'
p5051
I1
sS'considered'
p5052
I1
sS'dream'
p5053
I2
sS'misfire'
p5054
I3
sS'proud'
p5055
I1
sS'heat'
p5056
I2
sS'movie-esque'
p5057
I1
sS'ruh-roh'
p5058
I1
sS'semi-coherent'
p5059
I1
sS'schmaltzy'
p5060
I2
sS'cracks'
p5061
I1
sS'ferrara'
p5062
I1
sS'bogdanich'
p5063
I1
sS'perpetrated'
p5064
I1
sS'monstrous'
p5065
I1
sS'cheat'
p5066
I1
sS'workshops'
p5067
I1
sS'cheap'
p5068
I11
sS'fifty'
p5069
I1
sS'notations'
p5070
I1
sS'hack'
p5071
I4
sS'rounded'
p5072
I1
sS'fifth'
p5073
I1
sS'ground'
p5074
I6
sS'hokum'
p5075
I3
sS'nemesis'
p5076
I3
sS'relies'
p5077
I1
sS'title'
p5078
I16
sS'escaped'
p5079
I2
sS'charmless'
p5080
I2
sS'state'
p5081
I2
sS'crime'
p5082
I8
sS'dull-witted'
p5083
I1
sS'wood'
p5084
I2
sS'threefold'
p5085
I1
sS'waydowntown'
p5086
I1
sS'developed'
p5087
I3
sS'identification'
p5088
I1
sS'watching'
p5089
I26
sS'shrill'
p5090
I2
sS'pumpkin'
p5091
I2
sS'overwritten'
p5092
I1
sS'close-ups'
p5093
I1
sS'autocritique'
p5094
I1
sS'bypassing'
p5095
I1
sS'jazz'
p5096
I1
sS'begging'
p5097
I1
sS'expectation'
p5098
I1
sS'truly'
p5099
I15
sS'wheedling'
p5100
I1
sS'cannot'
p5101
I5
sS'cylinders'
p5102
I1
sS'cautionary'
p5103
I3
sS'builds'
p5104
I1
sS'regarding'
p5105
I1
sS'tediously'
p5106
I1
sS'contrivances'
p5107
I1
sS'held'
p5108
I1
sS'leather'
p5109
I1
sS'bible-study'
p5110
I1
sS'seldom'
p5111
I1
sS'topnotch'
p5112
I1
sS'craftsmanship'
p5113
I1
sS'jokes'
p5114
I14
sS'dawdle'
p5115
I1
sS'losers'
p5116
I1
sS'meyjes'
p5117
I1
sS'raunchy'
p5118
I3
sS'quickie'
p5119
I1
sS'husband'
p5120
I1
sS'reveals'
p5121
I2
sS'concert'
p5122
I1
sS'physically'
p5123
I1
sS'imposter'
p5124
I2
sS'whitewash'
p5125
I1
sS'connections'
p5126
I2
sS'disquietingly'
p5127
I1
sS'flatly'
p5128
I1
sS'parking'
p5129
I1
sS'sport'
p5130
I1
sS'clumsily'
p5131
I4
sS'ability'
p5132
I1
sS'squandering'
p5133
I2
sS'suspects'
p5134
I2
sS'visceral'
p5135
I1
sS'tackling'
p5136
I1
sS'ways'
p5137
I7
sS'grunge-pirate'
p5138
I1
sS'surfacey'
p5139
I1
sS'hybrid'
p5140
I2
sS'justifies'
p5141
I1
sS'flop'
p5142
I1
sS'outside'
p5143
I1
sS'hiss'
p5144
I1
sS'import'
p5145
I3
sS'sharpener'
p5146
I1
sS'lays'
p5147
I1
sS'notice'
p5148
I3
sS'gay-niche'
p5149
I1
sS'transpose'
p5150
I1
sS'blame'
p5151
I1
sS'unusually'
p5152
I1
sS'coma'
p5153
I2
sS'embraces'
p5154
I1
sS'come'
p5155
I21
sS'schneidermeister'
p5156
I1
sS'reaction'
p5157
I2
sS'discernible'
p5158
I1
sS'superstar'
p5159
I1
sS'talented'
p5160
I4
sS'guffaw'
p5161
I1
sS'eschews'
p5162
I1
sS'dario'
p5163
I1
sS'quiet'
p5164
I1
sS'propaganda'
p5165
I4
sS'enabling'
p5166
I1
sS'aura'
p5167
I1
sS'yammering'
p5168
I1
sS'comes'
p5169
I25
sS'shamefully'
p5170
I1
sS'repulsively'
p5171
I1
sS'madness'
p5172
I2
sS'swaggering'
p5173
I2
sS'characterization'
p5174
I4
sS'color'
p5175
I1
sS'pow'
p5176
I4
sS'slogged'
p5177
I1
sS'authenticity'
p5178
I2
sS'cobbled'
p5179
I1
sS'inexplicable'
p5180
I1
sS'sampling'
p5181
I1
sS'satisfaction'
p5182
I1
sS'poo'
p5183
I1
sS'exploit'
p5184
I2
sS'sickly'
p5185
I1
sS'kev'
p5186
I1
sS'endeavor'
p5187
I5
sS'charismatic'
p5188
I1
sS'runaway'
p5189
I1
sS'turkey'
p5190
I3
sS'season'
p5191
I1
sS'olives'
p5192
I1
sS'oliver'
p5193
I1
sS'dyslexia'
p5194
I1
sS'fault'
p5195
I2
sS'cares'
p5196
I1
sS'modern-office'
p5197
I1
sS'informed'
p5198
I1
sS'markedly'
p5199
I1
sS'wheezing'
p5200
I1
sS'flakiness'
p5201
I1
sS'jerky'
p5202
I1
sS'sisterhood'
p5203
I1
sS'super-'
p5204
I1
sS'direction'
p5205
I13
sS'cowrote'
p5206
I1
sS'tasteless'
p5207
I1
sS'robbed'
p5208
I1
sS'dead-on'
p5209
I1
sS'commands'
p5210
I1
sS'tiger'
p5211
I1
sS'founders'
p5212
I1
sS'covers'
p5213
I2
sS'damme'
p5214
I1
sS'standup'
p5215
I2
sS'kaos'
p5216
I1
sS'careful'
p5217
I1
sS'irrelevant'
p5218
I1
sS'spirit'
p5219
I1
sS'pilot'
p5220
I1
sS'case'
p5221
I5
sS'soccer'
p5222
I1
sS'developing'
p5223
I1
sS'might'
p5224
I37
sS'restage'
p5225
I1
sS'cash'
p5226
I1
sS'arnold'
p5227
I4
sS'offbeat'
p5228
I2
sS'cast'
p5229
I18
sS'maryam'
p5230
I1
sS'thrillers'
p5231
I1
sS'dolls'
p5232
I1
sS'monstrously'
p5233
I1
sS'unpersuasive'
p5234
I1
sS'laggard'
p5235
I1
sS'someone'
p5236
I9
sS'drug'
p5237
I1
sS'perplexing'
p5238
I1
sS'ironic'
p5239
I1
sS'motivated'
p5240
I1
sS'thrills'
p5241
I5
sS'worry'
p5242
I1
sS'annoying'
p5243
I4
sS'participant'
p5244
I1
sS'reeses'
p5245
I1
sS'botching'
p5246
I1
sS'author'
p5247
I1
sS'media'
p5248
I1
sS'pillowcases'
p5249
I1
sS'trip'
p5250
I5
sS'poetic'
p5251
I3
sS'inquiry'
p5252
I1
sS'voices-from-the-other-side'
p5253
I1
sS'document'
p5254
I1
sS'events'
p5255
I2
sS'extravaganza'
p5256
I1
sS'week'
p5257
I2
sS'noble'
p5258
I1
sS'raps'
p5259
I1
sS'finish'
p5260
I6
sS'booths'
p5261
I1
sS'repellantly'
p5262
I1
sS'enjoyment'
p5263
I2
sS'unconvincing'
p5264
I2
sS'director'
p5265
I43
sS'devoid'
p5266
I7
sS'drivel'
p5267
I2
sS'fruit'
p5268
I1
sS'changing'
p5269
I1
sS'musker'
p5270
I1
sS'swallow'
p5271
I2
sS'mentally'
p5272
I1
sS'enchanting'
p5273
I1
sS'implements'
p5274
I1
sS'longing'
p5275
I1
sS'affords'
p5276
I1
sS'burrito'
p5277
I1
sS'eventual'
p5278
I2
sS'charges'
p5279
I1
sS'remain'
p5280
I2
sS'breezy'
p5281
I1
sS'pun-laden'
p5282
I1
sS'severe'
p5283
I1
sS'without'
p5284
I30
sS'modem'
p5285
I2
sS'bodies'
p5286
I2
sS'justify'
p5287
I3
sS'entertainments'
p5288
I1
sS'avary'
p5289
I3
sS'frankie'
p5290
I1
sS'violence'
p5291
I9
sS'showgirls'
p5292
I1
sS'generally'
p5293
I2
sS'kilt'
p5294
I1
sS'valuable'
p5295
I1
sS'dumbness'
p5296
I1
sS'civilized'
p5297
I1
sS'off-puttingly'
p5298
I1
sS'kill'
p5299
I2
sS'period-perfect'
p5300
I1
sS'harrison'
p5301
I2
sS'touch'
p5302
I2
sS'n'
p5303
I1
sS'halfway'
p5304
I1
sS'blow'
p5305
I2
sS'tirade'
p5306
I1
sS'death'
p5307
I10
sS'hint'
p5308
I2
sS'thinking'
p5309
I7
sS'self-satisfied'
p5310
I1
sS'seems'
p5311
I32
sS'except'
p5312
I9
sS'improvement'
p5313
I1
sS'lets'
p5314
I1
sS'setting'
p5315
I6
sS'watchable'
p5316
I4
sS'treatment'
p5317
I2
sS'halftime'
p5318
I1
sS'struck'
p5319
I1
sS'dulls'
p5320
I1
sS'feminism'
p5321
I1
sS'payami'
p5322
I1
sS'swim'
p5323
I1
sS'wanders'
p5324
I1
sS'spectacular'
p5325
I3
sS'onscreen'
p5326
I2
sS'read'
p5327
I4
sS'twitchy'
p5328
I1
sS'early'
p5329
I4
sS'earnest'
p5330
I7
sS'self-serious'
p5331
I1
sS'listening'
p5332
I1
sS'symbolism'
p5333
I1
sS'using'
p5334
I3
sS'execution'
p5335
I8
sS'rebecca'
p5336
I1
sS'acute'
p5337
I1
sS'fortune'
p5338
I2
sS'heightened'
p5339
I1
sS'kennedy'
p5340
I1
sS'postcard'
p5341
I3
sS'collective'
p5342
I2
sS'endorses'
p5343
I1
sS'ill-timed'
p5344
I1
sS'oddly'
p5345
I1
sS'antwone'
p5346
I3
sS'benefit'
p5347
I1
sS'nubile'
p5348
I1
sS'fully'
p5349
I6
sS'woman-'
p5350
I1
sS'reduced'
p5351
I1
sS'laugh'
p5352
I10
sS'apartments'
p5353
I1
sS'sequences'
p5354
I3
sS'overheated'
p5355
I2
sS'competition'
p5356
I1
sS'snow-and-stuntwork'
p5357
I1
sS'meara'
p5358
I1
sS'rage'
p5359
I1
sS'evade'
p5360
I2
sS'settles'
p5361
I2
sS'bobbed'
p5362
I1
sS'tonally'
p5363
I1
sS'redeeming'
p5364
I2
sS'derisive'
p5365
I1
sS'mafia'
p5366
I1
sS'mood'
p5367
I3
sS'prolific'
p5368
I1
sS'blackboards'
p5369
I1
sS'willis'
p5370
I1
sS'slick'
p5371
I2
sS'stops'
p5372
I2
sS'conservative'
p5373
I1
sS'nutty'
p5374
I1
sS'deficit'
p5375
I1
sS'provides'
p5376
I2
sS'harvests'
p5377
I1
sS'heavyweights'
p5378
I1
sS'ethos'
p5379
I1
sS'cleanflicks'
p5380
I1
sS'quitting'
p5381
I1
sS'sarandon'
p5382
I1
sS'severed'
p5383
I1
sS'football'
p5384
I1
sS'assembly'
p5385
I1
sS'business'
p5386
I2
sS'sixth'
p5387
I1
sS'equivalent'
p5388
I1
sS'strained'
p5389
I3
sS'credits'
p5390
I6
sS'morphs'
p5391
I1
sS'kilted'
p5392
I1
sS'innocence'
p5393
I1
sS'leftover'
p5394
I1
sS'exciting'
p5395
I4
sS'stereotypes'
p5396
I3
sS'throw'
p5397
I2
sS'sonnenfeld'
p5398
I1
sS'dicey'
p5399
I1
sS'comparison'
p5400
I5
sS'central'
p5401
I5
sS'oh'
p5402
I3
sS'beard'
p5403
I1
sS'paints'
p5404
I1
sS'chop'
p5405
I1
sS'mugging'
p5406
I2
sS'stand'
p5407
I6
sS'underway'
p5408
I1
sS'doze'
p5409
I4
sS'intent'
p5410
I1
sS'os'
p5411
I1
sS'processor'
p5412
I1
sS'heavy'
p5413
I6
sS'ladies'
p5414
I1
sS'rhapsodize'
p5415
I1
sS'instruments'
p5416
I1
sS'copies'
p5417
I1
sS'rolling'
p5418
I1
sS'rising'
p5419
I3
sS'determine'
p5420
I1
sS'stoke'
p5421
I1
sS'backdrops'
p5422
I1
sS'invested'
p5423
I1
sS'cookie-cutter'
p5424
I1
sS'weight'
p5425
I5
sS'kmart'
p5426
I1
sS'area'
p5427
I1
sS'flatulence'
p5428
I1
sS'naughty'
p5429
I2
sS'strictly'
p5430
I3
sS'handles'
p5431
I1
sS'bumper'
p5432
I1
sS'start'
p5433
I7
sS'encounters'
p5434
I2
sS'low'
p5435
I4
sS'lot'
p5436
I25
sS'condone'
p5437
I1
sS'fish'
p5438
I2
sS'immaculate'
p5439
I1
sS'shower'
p5440
I1
sS'not-so-divine'
p5441
I1
sS'relic'
p5442
I1
sS'groan'
p5443
I1
sS'drains'
p5444
I1
sS'shamelessly'
p5445
I2
sS'smuggling'
p5446
I1
sS'bond-inspired'
p5447
I1
sS'seagal'
p5448
I5
sS'curiously'
p5449
I1
sS'manipulative'
p5450
I6
sS'collage-form'
p5451
I1
sS'cycle'
p5452
I1
sS'gratingly'
p5453
I1
sS'trying'
p5454
I13
sS'decidiram'
p5455
I1
sS'out-bad-act'
p5456
I1
sS'happening'
p5457
I3
sS'show-off'
p5458
I1
sS'stanford'
p5459
I1
sS'biscuit'
p5460
I1
sS'hard-sell'
p5461
I1
sS'freddy'
p5462
I3
sS'shallowly'
p5463
I1
sS'grasp'
p5464
I1
sS'gibberish'
p5465
I2
sS'strongly'
p5466
I2
sS'toilet'
p5467
I1
sS'taylor'
p5468
I1
sS'falseness'
p5469
I1
sS'cinema'
p5470
I4
sS'taste'
p5471
I7
sS'frighten'
p5472
I1
sS'todd'
p5473
I2
sS'macbeth'
p5474
I1
sS'senses'
p5475
I1
sS'tasty'
p5476
I1
sS'politics'
p5477
I4
sS'moves'
p5478
I4
sS'spends'
p5479
I1
sS'heather'
p5480
I1
sS'credibility'
p5481
I2
sS'elemental'
p5482
I1
sS'cinematography'
p5483
I4
sS'startlingly'
p5484
I1
sS'thought-provoking'
p5485
I1
sS'stumbles'
p5486
I2
sS'milking'
p5487
I1
sS'trash'
p5488
I3
sS'poor'
p5489
I4
sS'championship'
p5490
I1
sS'conspiracies'
p5491
I1
sS'diaries'
p5492
I1
sS'chases'
p5493
I5
sS'desolation'
p5494
I1
sS'teeth'
p5495
I2
sS'peas'
p5496
I1
sS'fetid'
p5497
I1
sS'cuerpo'
p5498
I1
sS'cadavers'
p5499
I1
sS'poof'
p5500
I1
sS'unattractive'
p5501
I1
sS'complications'
p5502
I1
sS'tendencies'
p5503
I1
sS'pool'
p5504
I3
sS'missed'
p5505
I7
sS'building'
p5506
I4
sS'thematic'
p5507
I3
sS'wife'
p5508
I4
sS'uglier'
p5509
I1
sS'killer-thrillers'
p5510
I1
sS'moonlight'
p5511
I1
sS'directors'
p5512
I1
sS'igloo'
p5513
I2
sS'transports'
p5514
I1
sS'pubescent'
p5515
I1
sS'diss'
p5516
I1
sS'pointing'
p5517
I1
sS'metaphor'
p5518
I1
sS'stuporously'
p5519
I1
sS'bull'
p5520
I2
sS'splitting'
p5521
I2
sS'unamusing'
p5522
I1
sS'thoughtful'
p5523
I1
sS'scherick'
p5524
I1
sS'messy'
p5525
I1
sS'follow'
p5526
I1
sS'meditation'
p5527
I2
sS'religious'
p5528
I1
sS'monty'
p5529
I3
sS'dreadful'
p5530
I2
sS'fizzles'
p5531
I1
sS'deliberateness'
p5532
I1
sS'homage'
p5533
I2
sS'gymnast'
p5534
I1
sS'stripped-down'
p5535
I1
sS'acting'
p5536
I23
sS'sparkling'
p5537
I1
sS'foster'
p5538
I1
sS'present'
p5539
I4
sS'skip'
p5540
I5
sS'dominated'
p5541
I1
sS'presentation'
p5542
I2
sS'woman'
p5543
I4
sS'worse'
p5544
I10
sS'song'
p5545
I3
sS'far'
p5546
I23
sS'horror'
p5547
I13
sS'grinds'
p5548
I1
sS'induce'
p5549
I1
sS'focus'
p5550
I7
sS'vera'
p5551
I1
sS'fan'
p5552
I4
sS'decide'
p5553
I2
sS'phoniness'
p5554
I1
sS'laser'
p5555
I1
sS'bubbles'
p5556
I1
sS'uwe'
p5557
I2
sS'leads'
p5558
I2
sS'heaven'
p5559
I5
sS'--'
p5560
I114
sS'vapid'
p5561
I3
sS'list'
p5562
I2
sS'theaters'
p5563
I2
sS'dirigir'
p5564
I1
sS'vibes'
p5565
I1
sS'manages'
p5566
I11
sS'duking'
p5567
I1
sS'throbbing'
p5568
I1
sS'conflicted'
p5569
I1
sS'flick'
p5570
I20
sS'rats'
p5571
I1
sS'lulls'
p5572
I1
sS'fence'
p5573
I3
sS'built-in'
p5574
I1
sS'triple-crosses'
p5575
I1
sS'villainess'
p5576
I1
sS'unblinking'
p5577
I1
sS'invention'
p5578
I3
sS'design'
p5579
I3
sS'value'
p5580
I3
sS'well-meaning'
p5581
I5
sS'nba'
p5582
I2
sS'mill'
p5583
I1
sS'chuckle'
p5584
I1
sS'bully'
p5585
I1
sS'darkness'
p5586
I1
sS'witnessed'
p5587
I1
sS'sun'
p5588
I1
sS'sum'
p5589
I4
sS'musty'
p5590
I2
sS'emotions'
p5591
I4
sS'milk'
p5592
I3
sS'witnesses'
p5593
I1
sS'version'
p5594
I11
sS'attitudes'
p5595
I1
sS'instilling'
p5596
I1
sS'learned'
p5597
I4
sS'discern'
p5598
I1
sS'racing'
p5599
I2
sS'repugnant'
p5600
I1
sS'inconsequentiality'
p5601
I1
sS'edited'
p5602
I1
sS'unsurprisingly'
p5603
I1
sS'friday'
p5604
I4
sS'christian'
p5605
I2
sS'naptime'
p5606
I1
sS'loose'
p5607
I3
sS'supposedly'
p5608
I2
sS'suicide'
p5609
I1
sS'absurdist'
p5610
I1
sS'ponderous'
p5611
I1
sS'excess'
p5612
I1
sS'directions'
p5613
I2
sS'depend'
p5614
I2
sS'strong'
p5615
I2
sS'respect'
p5616
I1
sS'jaunt'
p5617
I1
sS'flowery'
p5618
I1
sS'every'
p5619
I31
sS'pleasant'
p5620
I4
sS'colored'
p5621
I1
sS'ahead'
p5622
I1
sS'extraordinary'
p5623
I2
sS'piquant'
p5624
I1
sS'inspired'
p5625
I4
sS'hovers'
p5626
I1
sS'whine'
p5627
I2
sS'creepy'
p5628
I7
sS'whiny'
p5629
I2
sS'amount'
p5630
I3
sS'gear'
p5631
I1
sS'disneyland'
p5632
I1
sS'sticking'
p5633
I2
sS'headache'
p5634
I1
sS'family'
p5635
I11
sS'suddenly'
p5636
I1
sS'marginal'
p5637
I2
sS'ask'
p5638
I3
sS'likable'
p5639
I2
sS'saccharine'
p5640
I4
sS'toys'
p5641
I1
sS'implausible'
p5642
I1
sS'uncharismatically'
p5643
I1
sS'passage'
p5644
I1
sS'laughable'
p5645
I2
sS'journalistically'
p5646
I1
sS'ash'
p5647
I1
sS'anne-sophie'
p5648
I1
sS'takes'
p5649
I19
sS'harmless'
p5650
I4
sS'revelation'
p5651
I1
sS'contains'
p5652
I5
sS'consolation'
p5653
I1
sS'rustic'
p5654
I1
sS'taken'
p5655
I6
sS'garnish'
p5656
I1
sS'terminally'
p5657
I2
sS'flat'
p5658
I14
sS'flaw'
p5659
I2
sS'knows'
p5660
I3
sS'abridged'
p5661
I1
sS'grimly'
p5662
I1
sS'excuse'
p5663
I6
sS'basically'
p5664
I2
sS'broke'
p5665
I1
sS'known'
p5666
I2
sS'ultimately'
p5667
I26
sS'producing'
p5668
I1
sS'helped'
p5669
I1
sS'parable'
p5670
I2
sS'equation'
p5671
I1
sS'thematically'
p5672
I1
sS'besides'
p5673
I2
sS'excessively'
p5674
I1
sS'nine'
p5675
I1
sS'wrestler'
p5676
I1
sS'malls'
p5677
I1
sS'self-conscious'
p5678
I4
sS'history'
p5679
I4
sS'dual'
p5680
I1
sS'cheesier'
p5681
I1
sS'publicist'
p5682
I1
sS'conspire'
p5683
I1
sS'sitcom'
p5684
I5
sS'pushed'
p5685
I1
sS'please'
p5686
I4
sS'arise'
p5687
I1
sS'cows'
p5688
I1
sS'phrase'
p5689
I1
sS'lacks'
p5690
I10
sS'not-so-small'
p5691
I1
sS'morrissette'
p5692
I1
sS'firmly'
p5693
I2
sS'influenced'
p5694
I1
sS'goal'
p5695
I3
sS'rather'
p5696
I29
sS'breaking'
p5697
I1
sS'deje'
p5698
I1
sS'stayed'
p5699
I1
sS'hampered'
p5700
I2
sS'occasionally'
p5701
I13
sS'cloying'
p5702
I2
sS'consigliere'
p5703
I1
sS'kung'
p5704
I4
sS'okay'
p5705
I1
sS'circuit'
p5706
I4
sS'rude'
p5707
I1
sS'weaknesses'
p5708
I1
sS'screenwriters'
p5709
I1
sS'emphasizes'
p5710
I2
sS'idiocy'
p5711
I2
sS'tries'
p5712
I16
sS'lighting'
p5713
I2
sS'adventure'
p5714
I3
sS'numb'
p5715
I1
sS'costner'
p5716
I2
sS'capitalize'
p5717
I2
sS'replete'
p5718
I1
sS'contrived'
p5719
I13
sS'short'
p5720
I18
sS'chiefly'
p5721
I1
sS'susan'
p5722
I1
sS'departure'
p5723
I1
sS'strutting'
p5724
I1
sS'blasphemous'
p5725
I2
sS'negligible'
p5726
I1
sS'dread'
p5727
I1
sS'vintage'
p5728
I2
sS'egg'
p5729
I1
sS'began'
p5730
I1
sS'help'
p5731
I1
sS'almodovar'
p5732
I1
sS'style-free'
p5733
I1
sS'essence'
p5734
I1
sS'soon'
p5735
I3
sS'proverbial'
p5736
I1
sS'cross'
p5737
I2
sS'disabled'
p5738
I1
sS'lovebirds'
p5739
I1
sS'perceptive'
p5740
I1
sS'committed'
p5741
I1
sS'smart'
p5742
I9
sS'hell'
p5743
I2
sS'inquiries'
p5744
I1
sS'talking'
p5745
I3
sS'flimsier'
p5746
I1
sS'style'
p5747
I15
sS'zemeckis'
p5748
I1
sS'waged'
p5749
I1
sS'glide'
p5750
I1
sS'severely'
p5751
I1
sS'wishful'
p5752
I1
sS'labours'
p5753
I1
sS'actually'
p5754
I17
sS'environmentalism'
p5755
I1
sS'absence'
p5756
I1
sS'strange'
p5757
I2
sS'relate'
p5758
I2
sS'stephen'
p5759
I1
sS'bout'
p5760
I1
sS'cool'
p5761
I6
sS'rumor'
p5762
I1
sS'alter'
p5763
I1
sS'fool'
p5764
I3
sS'evening'
p5765
I1
sS'somebody'
p5766
I2
sS'food'
p5767
I1
sS'hunter'
p5768
I2
sS'floating'
p5769
I2
sS'brutally'
p5770
I4
sS'framework'
p5771
I1
sS'fluffy'
p5772
I2
sS'foot'
p5773
I2
sS'sixth-grade'
p5774
I1
sS'yu'
p5775
I2
sS'adventurous'
p5776
I1
sS'develops'
p5777
I1
sS'desperately'
p5778
I1
sS'action-comedy'
p5779
I2
sS'sympathy'
p5780
I3
sS'ricochets'
p5781
I1
sS'occasions'
p5782
I1
sS'level'
p5783
I15
sS'ultra-cheesy'
p5784
I1
sS'stopped'
p5785
I1
sS'predators'
p5786
I1
sS'odd-couple'
p5787
I1
sS'die'
p5788
I3
sS'inherent'
p5789
I1
sS'fairy'
p5790
I3
sS'friendship'
p5791
I2
sS'trailer'
p5792
I2
sS'sketches'
p5793
I1
sS'weighs'
p5794
I1
sS'dig'
p5795
I1
sS'neil'
p5796
I1
sS'restless'
p5797
I1
sS'modernizes'
p5798
I1
sS'generation'
p5799
I2
sS'mockumentary'
p5800
I1
sS'elbows'
p5801
I1
sS'wacky'
p5802
I3
sS'brother'
p5803
I4
sS'autobiographical'
p5804
I1
sS'modernized'
p5805
I1
sS'punitive'
p5806
I1
sS'expect'
p5807
I5
sS'indian-american'
p5808
I1
sS'goombah'
p5809
I1
sS'eloquent'
p5810
I1
sS'beyond'
p5811
I10
sS'absurdity'
p5812
I3
sS'twists'
p5813
I5
sS'impersonation'
p5814
I1
sS'dominates'
p5815
I1
sS'visions'
p5816
I1
sS'robert'
p5817
I8
sS'since'
p5818
I20
sS'induces'
p5819
I1
sS'jolly'
p5820
I1
sS'overused'
p5821
I1
sS'coincidences'
p5822
I1
sS'sustain'
p5823
I4
sS'hill'
p5824
I3
sS'issue'
p5825
I2
sS'pun'
p5826
I1
sS'reporting'
p5827
I1
sS'inert'
p5828
I2
sS'blaring'
p5829
I1
sS'pug'
p5830
I1
sS'forgive'
p5831
I2
sS'pub'
p5832
I1
sS'lesser'
p5833
I2
sS'houses'
p5834
I1
sS'reason'
p5835
I17
sS'base'
p5836
I1
sS'put'
p5837
I12
sS'wwii-era'
p5838
I1
sS'teach'
p5839
I2
sS'hapless'
p5840
I1
sS'generate'
p5841
I7
sS'heroic'
p5842
I1
sS'thrown'
p5843
I2
sS'underwhelming'
p5844
I1
sS'terrible'
p5845
I3
sS'terribly'
p5846
I2
sS'american'
p5847
I18
sS'fiennes'
p5848
I3
sS'expecting'
p5849
I2
sS'lavinia'
p5850
I1
sS'threat'
p5851
I3
sS'daisy'
p5852
I1
sS'consequence'
p5853
I2
sS'throws'
p5854
I3
sS'solidly'
p5855
I1
sS'feed'
p5856
I1
sS'drooling'
p5857
I1
sS'seeming'
p5858
I1
sS'ever-growing'
p5859
I1
sS'radical'
p5860
I1
sS'churning'
p5861
I1
sS'fancy'
p5862
I4
sS'linking'
p5863
I1
sS'feet'
p5864
I4
sS'third-act'
p5865
I1
sS'unexpected'
p5866
I2
sS'least'
p5867
I20
sS'fees'
p5868
I1
sS'bland'
p5869
I14
sS'kid-vid'
p5870
I1
sS'miss'
p5871
I8
sS'passes'
p5872
I2
sS'horse'
p5873
I1
sS'magician'
p5874
I1
sS'dateflick'
p5875
I1
sS'script'
p5876
I47
sS'blossom'
p5877
I1
sS'leading'
p5878
I1
sS'doomsday'
p5879
I1
sS'belongs'
p5880
I2
sS'station'
p5881
I2
sS'bailiwick'
p5882
I1
sS'else-'
p5883
I1
sS'hundred'
p5884
I1
sS'syrup'
p5885
I1
sS'store'
p5886
I4
sS'untold'
p5887
I1
sS'shifted'
p5888
I1
sS'selling'
p5889
I1
sS'fire-red'
p5890
I1
sS'boilerplate'
p5891
I1
sS'trapped'
p5892
I3
sS'pore'
p5893
I2
sS'bowel'
p5894
I1
sS'hotel'
p5895
I1
sS'scooby'
p5896
I1
sS'reawaken'
p5897
I1
sS'off-putting'
p5898
I1
sS'boredom'
p5899
I1
sS'translation'
p5900
I2
sS'mason-dixon'
p5901
I1
sS'center'
p5902
I3
sS'king'
p5903
I1
sS'kind'
p5904
I30
sS'grew'
p5905
I1
sS'nagging'
p5906
I1
sS'performers'
p5907
I3
sS'fustily'
p5908
I1
sS'players'
p5909
I2
sS'grey'
p5910
I1
sS'purposeless'
p5911
I1
sS'outrageous'
p5912
I2
sS'best-foreign-film'
p5913
I1
sS'inventiveness'
p5914
I1
sS'toward'
p5915
I6
sS'clements'
p5916
I1
sS'dana'
p5917
I1
sS'procedural'
p5918
I1
sS'unrelenting'
p5919
I2
sS'cleaner'
p5920
I2
sS'enamored'
p5921
I2
sS'unhappily'
p5922
I1
sS'storytelling'
p5923
I7
sS'footnote'
p5924
I1
sS'teen-speak'
p5925
I1
sS'runteldat'
p5926
I1
sS'shrewd'
p5927
I2
sS'decadent'
p5928
I2
sS'assistir'
p5929
I1
sS'well-written'
p5930
I1
sS'substantial'
p5931
I4
sS'alike'
p5932
I1
sS'bigelow'
p5933
I3
sS'importa'
p5934
I1
sS'option'
p5935
I1
sS'lie'
p5936
I2
sS'wilson'
p5937
I1
sS'speaking'
p5938
I2
sS'cable'
p5939
I4
sS'check'
p5940
I3
sS'kitchen-sink'
p5941
I1
sS'imitations'
p5942
I1
sS'camouflage'
p5943
I2
sS'lit'
p5944
I1
sS'liu'
p5945
I1
sS'humanize'
p5946
I1
sS'useless'
p5947
I1
sS'showcases'
p5948
I2
sS'sub-formulaic'
p5949
I1
sS'oops'
p5950
I1
sS'unremarkable'
p5951
I3
sS'towards'
p5952
I2
sS'electric'
p5953
I1
sS'threatening'
p5954
I1
sS'mentality'
p5955
I1
sS'measures'
p5956
I1
sS'reach'
p5957
I4
sS'soured'
p5958
I1
sS'freddie'
p5959
I1
sS'caddyshack'
p5960
I1
sS'impacting'
p5961
I1
sS'experiences'
p5962
I4
sS'sandra'
p5963
I1
sS'nothing'
p5964
I52
sS'contest'
p5965
I2
sS'measured'
p5966
I1
sS'achievement'
p5967
I2
sS'stately'
p5968
I1
sS'creators'
p5969
I1
sS'chronicle'
p5970
I2
sS'rough-trade'
p5971
I1
sS'reparto'
p5972
I1
sS'performances'
p5973
I10
sS'clear'
p5974
I10
sS'popularity'
p5975
I2
sS'traditional'
p5976
I2
sS'odds'
p5977
I1
sS'part'
p5978
I8
sS'clean'
p5979
I1
sS'velocity'
p5980
I2
sS'ron'
p5981
I1
sS'latest'
p5982
I8
sS'blend'
p5983
I3
sS'lying'
p5984
I1
sS'fidget'
p5985
I1
sS'stalked'
p5986
I1
sS'hyper'
p5987
I1
sS'copy'
p5988
I5
sS'phenomenon'
p5989
I1
sS'bespeaks'
p5990
I1
sS'admittedly'
p5991
I1
sS'tener'
p5992
I1
sS'industrialized'
p5993
I1
sS'fixated'
p5994
I1
sS'boozy'
p5995
I1
sS'hyped'
p5996
I2
sS'theron'
p5997
I1
sS'drumbeat'
p5998
I1
sS'creepy-crawly'
p5999
I1
sS'justice'
p6000
I1
sS'semi-improvised'
p6001
I1
sS'unremittingly'
p6002
I1
sS'inflection'
p6003
I1
sS'grotesque'
p6004
I1
sS'starters'
p6005
I1
sS'viterelli'
p6006
I1
sS'college'
p6007
I5
sS'surveyed'
p6008
I1
sS'pretty'
p6009
I19
sS'hardened'
p6010
I1
sS'stubbly'
p6011
I1
sS'hip'
p6012
I2
sS'hit'
p6013
I6
sS'interminably'
p6014
I1
sS'meanwhile'
p6015
I1
sS'domestic'
p6016
I1
sS'dry'
p6017
I3
sS'trees'
p6018
I1
sS'down-and-dirty'
p6019
I1
sS'blank'
p6020
I1
sS'famous'
p6021
I3
sS'feels'
p6022
I42
sS'international'
p6023
I2
sS'boils'
p6024
I1
sS'referencing'
p6025
I1
sS'brothers-style'
p6026
I1
sS'sentimentalist'
p6027
I1
sS'lifetime-channel'
p6028
I1
sS'fluff'
p6029
I3
sS'catcher'
p6030
I1
sS'immerse'
p6031
I1
sS'brendan'
p6032
I1
sS'timeless'
p6033
I1
sS'sacrifices'
p6034
I2
sS'glover'
p6035
I1
sS'after-hours'
p6036
I1
sS'hype'
p6037
I1
sS'hobbled'
p6038
I1
sS'forster'
p6039
I1
sS'relentless'
p6040
I1
sS'wrote'
p6041
I1
sS'consciously'
p6042
I1
sS'bars'
p6043
I1
sS'art'
p6044
I7
sS'september'
p6045
I1
sS'intelligence'
p6046
I10
sS'crackle'
p6047
I1
sS'arrives'
p6048
I3
sS'ayurveda'
p6049
I1
sS'plausible'
p6050
I1
sS'culture'
p6051
I2
sS'schizophrenia'
p6052
I1
sS'arc'
p6053
I2
sS'dumb'
p6054
I11
sS'howler'
p6055
I1
sS'pouty-lipped'
p6056
I1
sS'portrait'
p6057
I2
sS'comfort'
p6058
I1
sS'romances'
p6059
I1
sS'mckay'
p6060
I2
sS'youth'
p6061
I3
sS'horrid'
p6062
I1
sS'revelations'
p6063
I1
sS'pictures'
p6064
I7
sS'wow'
p6065
I2
sS'consuming'
p6066
I1
sS'woo'
p6067
I3
sS'various'
p6068
I4
sS'guardian'
p6069
I1
sS'probably'
p6070
I18
sS'nincompoop'
p6071
I1
sS'overstuffed'
p6072
I1
sS'piss'
p6073
I1
sS'el'
p6074
I3
sS'stagnation'
p6075
I1
sS'latin'
p6076
I1
sS'recently'
p6077
I1
sS'creating'
p6078
I2
sS'excessive'
p6079
I1
sS'missing'
p6080
I5
sS'sold'
p6081
I1
sS'attention'
p6082
I4
sS'well-worn'
p6083
I1
sS'spray'
p6084
I1
sS'succeed'
p6085
I3
sS'untuned'
p6086
I1
sS'half-hearted'
p6087
I2
sS'competent'
p6088
I1
sS'hickenlooper'
p6089
I1
sS'stale'
p6090
I13
sS'league'
p6091
I1
sS'depicts'
p6092
I2
sS'showcase'
p6093
I4
sS'license'
p6094
I2
sS'secrets'
p6095
I3
sS'sensitive'
p6096
I2
sS'roman'
p6097
I1
sS'became'
p6098
I1
sS'context'
p6099
I1
sS'forgotten'
p6100
I2
sS'bond'
p6101
I3
sS'finds'
p6102
I4
sS'experimental'
p6103
I1
sS'albeit'
p6104
I1
sS'liked'
p6105
I4
sS'childhood'
p6106
I3
sS'frankenstein'
p6107
I1
sS'rubber-face'
p6108
I1
sS'battery'
p6109
I1
sS'sweet'
p6110
I10
sS'sweep'
p6111
I2
sS'whatever'
p6112
I6
sS'nastier'
p6113
I1
sS'remarkable'
p6114
I3
sS'linux'
p6115
I1
sS'mission'
p6116
I1
sS'hour-and-a-half'
p6117
I1
sS'simpler'
p6118
I1
sS'pr'
p6119
I1
sS'duo'
p6120
I1
sS'celluloid'
p6121
I2
sS'dud'
p6122
I1
sS'due'
p6123
I1
sS'appears'
p6124
I4
sS'pc'
p6125
I1
sS'damn'
p6126
I2
sS'coarse'
p6127
I1
sS'collected'
p6128
I1
sS'territory'
p6129
I3
sS'empty'
p6130
I3
sS'walter'
p6131
I1
sS'affectionate'
p6132
I1
sS'dialogue'
p6133
I22
sS'lived'
p6134
I1
sS'partly'
p6135
I2
sS'kline'
p6136
I1
sS'storylines'
p6137
I1
sS'else'
p6138
I16
sS'anthony'
p6139
I1
sS'vaguely'
p6140
I1
sS'anti-feminist'
p6141
I1
sS'determination'
p6142
I2
sS'liver'
p6143
I1
sS'surveys'
p6144
I1
sS'demme'
p6145
I1
sS'plants'
p6146
I1
sS'intriguing'
p6147
I8
sS'overplay'
p6148
I1
sS'look'
p6149
I20
sS'frozen'
p6150
I1
sS'pace'
p6151
I7
sS'match'
p6152
I7
sS'behavior'
p6153
I2
sS'animated'
p6154
I4
sS'overrides'
p6155
I1
sS'pack'
p6156
I2
sS'underground'
p6157
I1
sS'well-acted'
p6158
I5
sS'supposed'
p6159
I4
sS'uninspired'
p6160
I5
sS'inter-species'
p6161
I1
sS'disappointing'
p6162
I1
sS'reads'
p6163
I1
sS'frantic'
p6164
I1
sS'full-length'
p6165
I3
sS'ready'
p6166
I2
sS'three-hour'
p6167
I1
sS'aged'
p6168
I1
sS'myth'
p6169
I1
sS'grant'
p6170
I1
sS'lengths'
p6171
I1
sS'grand'
p6172
I1
sS'spears'
p6173
I2
sS'conflict'
p6174
I1
sS'sham'
p6175
I3
sS'dullingly'
p6176
I1
sS'gaghan'
p6177
I2
sS'dime'
p6178
I1
sS'banter'
p6179
I3
sS'blair'
p6180
I1
sS'overweight'
p6181
I1
sS'youngsters'
p6182
I1
sS'flows'
p6183
I1
sS'brooding'
p6184
I1
sS'nights'
p6185
I4
sS'uses'
p6186
I5
sS'decency'
p6187
I1
sS'knack'
p6188
I1
sS'janice'
p6189
I2
sS'crescendos'
p6190
I1
sS'lower'
p6191
I2
sS'faceoff'
p6192
I1
sS'tambor'
p6193
I3
sS'older'
p6194
I4
sS'flirts'
p6195
I1
sS'cheek'
p6196
I1
sS'anybody'
p6197
I3
sS'half-baked'
p6198
I2
sS'hoity-toity'
p6199
I1
sS'cheer'
p6200
I2
sS'edge'
p6201
I3
sS'stumblebum'
p6202
I1
sS'inspirational'
p6203
I1
sS'dares'
p6204
I1
sS'five'
p6205
I4
sS'mid-range'
p6206
I1
sS'passed'
p6207
I3
sS'abilities'
p6208
I2
sS'exploits'
p6209
I1
sS'knot'
p6210
I2
sS'kidlets'
p6211
I1
sS'birthday'
p6212
I1
sS'inactive'
p6213
I1
sS'cocky'
p6214
I1
sS'distanced'
p6215
I1
sS'gal-pal'
p6216
I1
sS'praying'
p6217
I1
sS'convolution'
p6218
I1
sS'gems'
p6219
I1
sS'conjured'
p6220
I1
sS'majority'
p6221
I1
sS'scenario'
p6222
I3
sS'conjures'
p6223
I1
sS'treacly'
p6224
I1
sS'problematic'
p6225
I2
sS'transformation'
p6226
I1
sS'hate'
p6227
I4
sS'associations'
p6228
I1
sS'lacking'
p6229
I11
sS'defies'
p6230
I2
sS'showing'
p6231
I1
sS'sounding'
p6232
I2
sS'triste'
p6233
I1
sS'undercurrents'
p6234
I1
sS'game'
p6235
I10
sS'wiser'
p6236
I2
sS'damage'
p6237
I3
sS'antiseptic'
p6238
I1
sS'dramedy'
p6239
I1
sS'raving'
p6240
I1
sS'outright'
p6241
I1
sS'labute'
p6242
I2
sS'confront'
p6243
I1
sS'over-familiarity'
p6244
I1
sS'restroom'
p6245
I1
sS'ignore'
p6246
I3
sS'uproar'
p6247
I1
sS'dreck'
p6248
I3
sS'unendurable'
p6249
I2
sS'ingratiating'
p6250
I1
sS'overlong'
p6251
I3
sS'saddled'
p6252
I2
sS'sketch'
p6253
I4
sS'eldritch'
p6254
I1
sS'parade'
p6255
I4
sS'creation'
p6256
I2
sS'choppiness'
p6257
I1
sS'pretension'
p6258
I2
sS'experienced'
p6259
I1
sS'pathetically'
p6260
I1
sS'appealingly'
p6261
I1
sS'giannini'
p6262
I1
sS'lifelike'
p6263
I1
sS'delivered'
p6264
I4
sS'describing'
p6265
I1
sS'schmaltz'
p6266
I1
sS'undisputed'
p6267
I3
sS'thekids'
p6268
I1
sS'absolutely'
p6269
I3
sS'seller'
p6270
I2
sS'bodacious'
p6271
I1
sS'retro'
p6272
I1
sS'ticking'
p6273
I1
sS'tends'
p6274
I2
sS'anne'
p6275
I3
sS'slapstick'
p6276
I4
sS'forgets'
p6277
I1
sS'minimal'
p6278
I1
sS'ii'
p6279
I2
sS'clownish'
p6280
I1
sS'run'
p6281
I4
sS'triple-espresso'
p6282
I1
sS'first-time'
p6283
I4
sS'martin'
p6284
I4
sS'rug'
p6285
I1
sS'screenings'
p6286
I1
sS'step'
p6287
I2
sS'redundancies'
p6288
I1
sS'lasts'
p6289
I1
sS'chick'
p6290
I1
sS'refuses'
p6291
I1
sS'smothered'
p6292
I2
sS'predictability'
p6293
I2
sS'rut'
p6294
I1
sS'jacobi'
p6295
I1
sS'faith'
p6296
I3
sS'sharper'
p6297
I2
sS'soft'
p6298
I4
sS'firing'
p6299
I1
sS'lifeless'
p6300
I6
sS'heel'
p6301
I1
sS'deserve'
p6302
I6
sS'classics'
p6303
I1
sS'shiny'
p6304
I1
sS'stoops'
p6305
I1
sS'block'
p6306
I2
sS'depression-era'
p6307
I1
sS'seeing'
p6308
I9
sS'sudsy'
p6309
I1
sS'incoherence'
p6310
I1
sS'within'
p6311
I1
sS'nonsense'
p6312
I3
sS'parton'
p6313
I1
sS'conscientious'
p6314
I1
sS're-fried'
p6315
I1
sS'rolls'
p6316
I1
sS'reworked'
p6317
I1
sS'scenarios'
p6318
I1
sS'sonny'
p6319
I1
sS'undertaken'
p6320
I1
sS'infuriating'
p6321
I1
sS'placing'
p6322
I1
sS'question'
p6323
I5
sS'pussy-ass'
p6324
I1
sS'fast'
p6325
I2
sS'faso'
p6326
I1
sS'summertime'
p6327
I1
sS'andy'
p6328
I1
sS'mimicry'
p6329
I1
sS'mountains'
p6330
I1
sS'narrator'
p6331
I1
sS'heedless'
p6332
I1
sS'bender'
p6333
I1
sS'inept'
p6334
I5
sS'mind-destroying'
p6335
I1
sS'gender-war'
p6336
I1
sS'hail'
p6337
I1
sS'delta'
p6338
I1
sS'well-made'
p6339
I1
sS'reek'
p6340
I1
sS'reel'
p6341
I4
sS'collapses'
p6342
I1
sS'raising'
p6343
I2
sS'commercialism'
p6344
I1
sS'windows'
p6345
I1
sS'visible'
p6346
I2
sS'boldface'
p6347
I1
sS'participants'
p6348
I1
sS'cooper'
p6349
I1
sS'capitalizes'
p6350
I1
sS'chelsea'
p6351
I3
sS'called'
p6352
I4
sS'beguiling'
p6353
I1
sS'individuality'
p6354
I1
sS'associated'
p6355
I1
sS'worthwhile'
p6356
I1
sS'stick'
p6357
I2
sS'soars'
p6358
I1
sS'steeped'
p6359
I1
sS'stuffs'
p6360
I1
sS'kathryn'
p6361
I1
sS'post-production'
p6362
I2
sS'image-mongering'
p6363
I1
sS'not-so-big'
p6364
I1
sS'unwise'
p6365
I1
sS'spring-break'
p6366
I1
sS'evocative'
p6367
I1
sS'cotton'
p6368
I1
sS'r-rated'
p6369
I1
sS'flava'
p6370
I1
sS'amounts'
p6371
I1
sS'endurance'
p6372
I2
sS'widowmaker'
p6373
I1
sS'audience-abuse'
p6374
I1
sS'nick'
p6375
I1
sS'reflections'
p6376
I1
sS'tv-insider'
p6377
I1
sS'draw'
p6378
I2
sS'leaden'
p6379
I4
sS'problems'
p6380
I4
sS'pretended'
p6381
I1
sS'helping'
p6382
I2
sS'drag'
p6383
I8
sS'tomcats'
p6384
I2
sS'untugged'
p6385
I1
sS'drab'
p6386
I1
sS'heroine'
p6387
I1
sS'structure'
p6388
I3
sS'broomfield'
p6389
I1
sS'suffers'
p6390
I9
sS'e'
p6391
I4
sS'practically'
p6392
I2
sS'dvd'
p6393
I4
sS'outing'
p6394
I1
sS'required'
p6395
I2
sS'humiliated'
p6396
I1
sS'rushed'
p6397
I1
sS'attacking'
p6398
I1
sS'depth'
p6399
I4
sS'pues'
p6400
I1
sS'tub'
p6401
I1
sS'everywhere'
p6402
I1
sS'nash'
p6403
I2
sS'requires'
p6404
I1
sS'corpse'
p6405
I2
sS'weighty'
p6406
I2
sS'evenly'
p6407
I1
sS'giggles'
p6408
I3
sS'cheerful'
p6409
I2
sS'gang'
p6410
I3
sS'go'
p6411
I24
sS'particularly'
p6412
I6
sS'psycho'
p6413
I1
sS'issues'
p6414
I5
sS'daring'
p6415
I1
sS'wizard'
p6416
I1
sS'mosque'
p6417
I1
sS'suits'
p6418
I1
sS'attackers'
p6419
I1
sS'druggy'
p6420
I1
sS'small-town'
p6421
I1
sS'sellouts'
p6422
I1
sS'reassembled'
p6423
I1
sS'snipes'
p6424
I1
sS'pay'
p6425
I7
sS'mainstream'
p6426
I3
sS'hollywood-action'
p6427
I1
sS'wave'
p6428
I2
sS'indication'
p6429
I2
sS'sandlerian'
p6430
I1
sS'underscore'
p6431
I1
sS'rattling'
p6432
I1
sS'telling'
p6433
I4
sS'traveler'
p6434
I1
sS'spoof'
p6435
I2
sS'retold'
p6436
I1
sS'nausea'
p6437
I1
sS'brightly'
p6438
I1
sS'incoherent'
p6439
I5
sS'excruciating'
p6440
I2
sS'stiff'
p6441
I3
sS'ironies'
p6442
I1
sS'array'
p6443
I1
sS'unusual'
p6444
I1
sS'michael'
p6445
I2
sS'ryan'
p6446
I2
sS'deals'
p6447
I1
sS'co-stars'
p6448
I1
sS'verdict'
p6449
I1
sS'rip-off'
p6450
I4
sS'fortified'
p6451
I1
sS'phoenix'
p6452
I1
sS'sedentary'
p6453
I1
sS'hairier'
p6454
I1
sS'deleting'
p6455
I1
sS'sleazy'
p6456
I1
sS'watstein'
p6457
I1
sS'booty'
p6458
I1
sS'ze'
p6459
I1
sS'surefire'
p6460
I2
sS'thinly'
p6461
I1
sS'waking'
p6462
I3
sS'jump'
p6463
I2
sS'stagy'
p6464
I1
sS'picked'
p6465
I1
sS'reunion'
p6466
I1
sS'notwithstanding'
p6467
I3
sS'judd'
p6468
I1
sS'makers'
p6469
I3
sS'folk'
p6470
I1
sS'plays'
p6471
I21
sS'kool-aid'
p6472
I1
sS'opaque'
p6473
I3
sS'saw'
p6474
I3
sS'vampire'
p6475
I4
sS'find'
p6476
I19
sS'cell'
p6477
I2
sS'evoked'
p6478
I1
sS'experiment'
p6479
I1
sS'volatile'
p6480
I2
sS'drags'
p6481
I2
sS'nicholas'
p6482
I3
sS'poky'
p6483
I1
sS'fearlessness'
p6484
I1
sS'downright'
p6485
I6
sS'focuses'
p6486
I1
sS'meandering'
p6487
I4
sS'eroti-comedy'
p6488
I1
sS'commercial'
p6489
I4
sS'giant'
p6490
I4
sS'growing'
p6491
I2
sS'blandness'
p6492
I2
sS'focused'
p6493
I1
sS'conceited'
p6494
I1
sS'sexy'
p6495
I3
sS'soaper'
p6496
I1
sS'self-glorified'
p6497
I1
sS'guts'
p6498
I1
sS'veered'
p6499
I1
sS'host'
p6500
I1
sS'leaving'
p6501
I3
sS'suggests'
p6502
I2
sS'slightest'
p6503
I1
sS'commendable'
p6504
I1
sS'selby'
p6505
I1
sS'rohypnol'
p6506
I1
sS'depths'
p6507
I2
sS'danger'
p6508
I1
sS'clare'
p6509
I1
sS'win'
p6510
I4
sS'improbably'
p6511
I1
sS'clout'
p6512
I1
sS'herzog'
p6513
I1
sS'wit'
p6514
I13
sS'dutiful'
p6515
I1
sS'unhappy'
p6516
I2
sS'duck'
p6517
I1
sS'grouchy'
p6518
I1
sS'gimmick'
p6519
I1
sS'dumbed-down'
p6520
I1
sS'boasts'
p6521
I1
sS'marketable'
p6522
I1
sS'unpleasantly'
p6523
I1
sS'use'
p6524
I2
sS'feel'
p6525
I21
sS'crap'
p6526
I1
sS'stream'
p6527
I1
sS'self-deprecating'
p6528
I1
sS'remains'
p6529
I8
sS'doodle'
p6530
I1
sS'idiots'
p6531
I2
sS'rackets'
p6532
I1
sS'camera'
p6533
I7
sS'examination'
p6534
I1
sS'bluto'
p6535
I1
sS'vehicle'
p6536
I1
sS'cram'
p6537
I2
sS'hiding'
p6538
I1
sS'convoluted'
p6539
I2
sS'possession'
p6540
I1
sS'popped'
p6541
I1
sS'clever'
p6542
I14
sS'fluxing'
p6543
I1
sS'dysfunctional'
p6544
I3
sS'started'
p6545
I2
sS'becomes'
p6546
I11
sS'benchmark'
p6547
I1
sS'improve'
p6548
I1
sS'charming'
p6549
I9
sS'recount'
p6550
I1
sS'posturing'
p6551
I1
sS'actual'
p6552
I3
sS'unfaithful'
p6553
I4
sS'women'
p6554
I10
sS'crosses'
p6555
I1
sS'pogue'
p6556
I1
sS'ride'
p6557
I5
sS'strategically'
p6558
I1
sS'anywhere'
p6559
I2
sS'crossed'
p6560
I2
sS'equate'
p6561
I1
sS'meet'
p6562
I1
sS'pedagogy'
p6563
I1
sS'lower-class'
p6564
I2
sS'befits'
p6565
I1
sS'talk-heavy'
p6566
I1
sS'proof'
p6567
I1
sS'control'
p6568
I1
sS'picture'
p6569
I20
sS'water-bound'
p6570
I1
sS'shtick'
p6571
I2
sS'matinee'
p6572
I1
sS'halloween'
p6573
I3
sS'dripping'
p6574
I1
sS'nonbelievers'
p6575
I1
sS'direct-to-void'
p6576
I1
sS'villain'
p6577
I1
sS'pulling'
p6578
I1
sS'something'
p6579
I43
sS'wonderful'
p6580
I1
sS'serial'
p6581
I2
sS'dimwits'
p6582
I1
sS'rape'
p6583
I1
sS'soft-porn'
p6584
I1
sS'exoticism'
p6585
I1
sS'conceit'
p6586
I3
sS'nary'
p6587
I1
sS'sit'
p6588
I9
sS'vibe'
p6589
I1
sS'six'
p6590
I3
sS'sidewalks'
p6591
I1
sS'poetry'
p6592
I6
sS'enactments'
p6593
I1
sS'brian'
p6594
I3
sS'young-guns'
p6595
I1
sS'sentiments'
p6596
I1
sS'compiled'
p6597
I1
sS'instead'
p6598
I18
sS'toddler'
p6599
I1
sS'monosyllabic'
p6600
I1
sS'sin'
p6601
I1
sS'narc'
p6602
I1
sS'cliched'
p6603
I4
sS'tension'
p6604
I5
sS'demonstrates'
p6605
I1
sS'immersed'
p6606
I1
sS'unclassifiably'
p6607
I1
sS'unforgivably'
p6608
I1
sS'fart'
p6609
I2
sS'textural'
p6610
I1
sS'ethnic'
p6611
I2
sS'flagrantly'
p6612
I1
sS'cacoyannis'
p6613
I1
sS'bankrupt'
p6614
I1
sS'diabolical'
p6615
I1
sS'extemporaneously'
p6616
I1
sS'beloved-major-'
p6617
I1
sS'interrupted'
p6618
I1
sS'wwii'
p6619
I1
sS'baird'
p6620
I1
sS'honestly'
p6621
I1
sS'alienation'
p6622
I1
sS'executives'
p6623
I1
sS'counting'
p6624
I1
sS'actorish'
p6625
I1
sS'bathing'
p6626
I1
sS'nonchallenging'
p6627
I1
sS'soggy'
p6628
I1
sS'unbreakable'
p6629
I1
sS'damsel'
p6630
I1
sS'fleshed-out'
p6631
I2
sS'including'
p6632
I1
sS'looks'
p6633
I15
sS'low-wattage'
p6634
I1
sS'superior'
p6635
I3
sS'complicate'
p6636
I1
sS'outer'
p6637
I1
sS'affleck'
p6638
I3
sS'ships'
p6639
I1
sS'nostalgia'
p6640
I5
sS'owe'
p6641
I1
sS'vital'
p6642
I2
sS'soulless'
p6643
I5
sS'orange'
p6644
I1
sS'holiday'
p6645
I2
sS'hoffman'
p6646
I3
sS'stortelling'
p6647
I1
sS'murdock'
p6648
I1
sS'freeman'
p6649
I1
sS'distress'
p6650
I2
sS'richness'
p6651
I1
sS'wells'
p6652
I1
sS'frontal'
p6653
I3
sS'practice'
p6654
I1
sS'catches'
p6655
I2
sS'ambition'
p6656
I3
sS'front'
p6657
I4
sS'literacy'
p6658
I1
sS'landings'
p6659
I1
sS'worlds'
p6660
I1
sS'stunt-hungry'
p6661
I1
sS'profound'
p6662
I2
sS'laconic'
p6663
I2
sS'unpredictable'
p6664
I1
sS'mode'
p6665
I2
sS'pleasures'
p6666
I2
sS'renner'
p6667
I1
sS'crikey'
p6668
I1
sS'erratic'
p6669
I3
sS'studios'
p6670
I2
sS'mcculloch'
p6671
I1
sS'female'
p6672
I2
sS'crass-a-thons'
p6673
I1
sS'tepid'
p6674
I1
sS'fitting'
p6675
I1
sS'staying'
p6676
I1
sS'related'
p6677
I1
sS'shrieky'
p6678
I1
sS'interplay'
p6679
I1
sS'measure'
p6680
I2
sS'cliche'
p6681
I6
sS'margins'
p6682
I1
sS'special'
p6683
I23
sS'category'
p6684
I2
sS'tabloid'
p6685
I1
sS'chyna'
p6686
I1
sS'lukewarm'
p6687
I1
sS'entertainment'
p6688
I11
sS'cerebral'
p6689
I2
sS'closer'
p6690
I3
sS'critics'
p6691
I3
sS'shambles'
p6692
I1
sS'performs'
p6693
I1
sS'impart'
p6694
I1
sS'honorable'
p6695
I1
sS'brilliantly'
p6696
I3
sS'cause'
p6697
I6
sS'integrated'
p6698
I1
sS'common'
p6699
I2
sS'trashy'
p6700
I1
sS'chitchat'
p6701
I1
sS'dickensian'
p6702
I1
sS'maintains'
p6703
I1
sS'catsup--'
p6704
I1
sS'attending'
p6705
I1
sS'completely'
p6706
I12
sS'york'
p6707
I5
sS'x'
p6708
I3
sS'conflicts'
p6709
I1
sS'van'
p6710
I6
sS'moody'
p6711
I1
sS'stupidity'
p6712
I1
sS'underachiever'
p6713
I1
sS'solutions'
p6714
I1
sS'g'
p6715
I2
sS'route'
p6716
I1
sS'desnudo'
p6717
I1
sS'timer'
p6718
I1
sS'times'
p6719
I16
sS'counterpart'
p6720
I1
sS'conversation'
p6721
I1
sS'keel'
p6722
I1
sS'wading'
p6723
I1
sS'resumes'
p6724
I1
sS'biting'
p6725
I1
sS'sword-and-sorcery'
p6726
I1
sS'austin'
p6727
I1
sS'exam'
p6728
I1
sS'evans'
p6729
I1
sS'succeeds'
p6730
I2
sS'scattershot'
p6731
I1
sS'powerful'
p6732
I2
sS'cardiac'
p6733
I1
sS'listless'
p6734
I4
sS'choose'
p6735
I2
sS'bitch'
p6736
I1
sS'bros'
p6737
I1
sS'probation'
p6738
I1
sS'quality'
p6739
I8
sS'long'
p6740
I41
sS'destructive'
p6741
I1
sS'bears'
p6742
I7
sS'guys'
p6743
I5
sS'durable'
p6744
I1
sS'in-joke'
p6745
I1
sS'chou-chou'
p6746
I2
sS'grow'
p6747
I2
sS'casting'
p6748
I4
sS'attack'
p6749
I1
sS'wrapped'
p6750
I2
sS'perfectly'
p6751
I4
sS'final'
p6752
I3
sS'paved'
p6753
I1
sS'self-aware'
p6754
I1
sS'shelf'
p6755
I3
sS'exactly'
p6756
I15
sS'slides'
p6757
I1
sS'manipulation'
p6758
I1
sS'less-than-objective'
p6759
I1
sS'fuzzy'
p6760
I1
sS'noses'
p6761
I1
sS'congenital'
p6762
I1
sS'achieves'
p6763
I2
sS'ben'
p6764
I3
sS'characterizations'
p6765
I2
sS'objectionable'
p6766
I1
sS'boring'
p6767
I14
sS'distinguishes'
p6768
I1
sS'thrashing'
p6769
I1
sS'churlish'
p6770
I1
sS'bed'
p6771
I1
sS'cartoonish'
p6772
I2
sS'bare'
p6773
I2
sS'yawner'
p6774
I1
sS'dusty'
p6775
I1
sS'bet'
p6776
I1
sS'bard'
p6777
I1
sS'exhibit'
p6778
I1
sS'glib'
p6779
I2
sS'co-written'
p6780
I2
sS'unaccountable'
p6781
I1
sS'villains'
p6782
I1
sS'satiric'
p6783
I1
sS'journey'
p6784
I2
sS'irwin'
p6785
I4
sS'estafeta'
p6786
I1
sS'teenagers'
p6787
I3
sS'laser-beam'
p6788
I1
sS'horrors'
p6789
I1
sS'sardonic'
p6790
I1
sS'goldberg'
p6791
I1
sS'sincerity'
p6792
I1
sS'close'
p6793
I10
sS'need'
p6794
I14
sS'border'
p6795
I1
sS'escapism'
p6796
I3
sS'roiling'
p6797
I1
sS'bastard'
p6798
I1
sS'mermaid'
p6799
I1
sS'florid'
p6800
I3
sS'italian-language'
p6801
I1
sS'able'
p6802
I3
sS'switch'
p6803
I1
sS'instance'
p6804
I1
sS'sprinkled'
p6805
I2
sS'unmemorable'
p6806
I2
sS'skeptics'
p6807
I1
sS'alienating'
p6808
I2
sS'fetish'
p6809
I1
sS'coke'
p6810
I1
sS'patchy'
p6811
I1
sS'sequel'
p6812
I11
sS'ray'
p6813
I1
sS'foot-age'
p6814
I1
sS'enveloped'
p6815
I1
sS'charms'
p6816
I2
sS'collaboration'
p6817
I1
sS'technicality'
p6818
I1
sS'intentions'
p6819
I5
sS'awe'
p6820
I1
sS'cockney'
p6821
I1
sS'kurt'
p6822
I1
sS'consequences'
p6823
I2
sS'saddest'
p6824
I1
sS'undeniable'
p6825
I2
sS'upset'
p6826
I1
sS'astonishing'
p6827
I3
sS'proceedings'
p6828
I1
sS'bui'
p6829
I1
sS'plumbed'
p6830
I1
sS'michel'
p6831
I1
sS'satyr'
p6832
I1
sS'highest'
p6833
I1
sS'inane'
p6834
I2
sS'barn-burningly'
p6835
I1
sS'all-night'
p6836
I1
sS'affair'
p6837
I7
sS'emerging'
p6838
I1
sS'parker'
p6839
I4
sS'verbinski'
p6840
I1
sS'spindly'
p6841
I1
sS'kiddie'
p6842
I2
sS'gore-free'
p6843
I1
sS'agreed'
p6844
I1
sS'anyway'
p6845
I2
sS'eyebrows'
p6846
I1
sS'unbelievable'
p6847
I2
sS'sorimachi'
p6848
I1
sS'near-xenophobic'
p6849
I1
sS'cyber-horror'
p6850
I1
sS'playbook'
p6851
I1
sS'soldiers'
p6852
I2
sS'fear'
p6853
I6
sS'feat'
p6854
I1
sS'fix--this'
p6855
I1
sS'self-absorbed'
p6856
I1
sS'loveable'
p6857
I1
sS'ear'
p6858
I1
sS'based'
p6859
I9
sS'unfinished'
p6860
I1
sS'earned'
p6861
I1
sS'bardem'
p6862
I1
sS'muzak'
p6863
I1
sS'winner'
p6864
I2
sS'actress-producer'
p6865
I1
sS'songbird'
p6866
I1
sS'rash'
p6867
I1
sS'reactive'
p6868
I1
sS'cliche-riddled'
p6869
I1
sS'ethan'
p6870
I2
sS'bogged'
p6871
I3
sS'piano'
p6872
I3
sS'eighth'
p6873
I1
sS'achieve'
p6874
I2
sS'indignant'
p6875
I1
sS'boris'
p6876
I1
sS'doubting'
p6877
I1
sS'cube'
p6878
I1
sS'cuba'
p6879
I1
sS'joy'
p6880
I5
sS'mainly'
p6881
I2
sS'dope'
p6882
I1
sS'overall'
p6883
I10
sS'joint'
p6884
I1
sS'malaise'
p6885
I1
sS'legitimate'
p6886
I1
sS'words'
p6887
I3
sS'sitcomishly'
p6888
I1
sS'buyer'
p6889
I1
sS'wise'
p6890
I2
sS'sassy'
p6891
I1
sS'years'
p6892
I13
sS'chips'
p6893
I2
sS'auto-pilot'
p6894
I1
sS'wretchedly'
p6895
I1
sS'stability'
p6896
I1
sS'champagne'
p6897
I1
sS'joyless'
p6898
I1
sS'glory'
p6899
I2
sS'ended'
p6900
I1
sS'titus'
p6901
I1
sS'married'
p6902
I1
sS'oppressively'
p6903
I1
sS'affluent'
p6904
I1
sS'processed'
p6905
I1
sS'contain'
p6906
I1
sS'grab'
p6907
I2
sS'grad'
p6908
I1
sS'generations'
p6909
I1
sS'view'
p6910
I5
sS'sensuality'
p6911
I1
sS'humiliation'
p6912
I1
sS'shake'
p6913
I3
sS'humans'
p6914
I1
sS'artsy'
p6915
I1
sS'operates'
p6916
I1
sS'computer'
p6917
I3
sS'merits'
p6918
I1
sS'desperate'
p6919
I7
sS'overtones'
p6920
I1
sS'barrels'
p6921
I1
sS'luckiest'
p6922
I1
sS'welles'
p6923
I1
sS'joys'
p6924
I1
sS'nightmare'
p6925
I3
sS'horribly'
p6926
I1
sS'playas'
p6927
I1
sS'early-on'
p6928
I1
sS'superb'
p6929
I2
sS'fill-in-'
p6930
I1
sS'genius'
p6931
I2
sS'written'
p6932
I6
sS'supernatural'
p6933
I3
sS'fifties'
p6934
I1
sS'horrible'
p6935
I3
sS'crude'
p6936
I5
sS'limit'
p6937
I2
sS'flicks'
p6938
I4
sS'frustrated'
p6939
I1
sS'outsiders'
p6940
I1
sS'pants'
p6941
I1
sS'iditarod'
p6942
I1
sS'comparable'
p6943
I1
sS'neither'
p6944
I16
sS'philbin'
p6945
I1
sS'opening'
p6946
I3
sS'importance'
p6947
I2
sS'badness'
p6948
I3
sS'simple-minded'
p6949
I1
sS'slasher-movie'
p6950
I1
sS'kicking'
p6951
I1
sS'job'
p6952
I7
sS'hypothesis'
p6953
I1
sS'joe'
p6954
I2
sS'spoil'
p6955
I1
sS'probing'
p6956
I1
sS'group'
p6957
I3
sS'precious'
p6958
I4
sS'mcconaughey'
p6959
I1
sS'undetermined'
p6960
I1
sS'hits'
p6961
I1
sS'sympathizing'
p6962
I1
sS'histrionics'
p6963
I1
sS'career'
p6964
I5
sS'profanity'
p6965
I1
sS'laddish'
p6966
I1
sS'valiantly'
p6967
I1
sS'strains'
p6968
I2
sS'admit'
p6969
I2
sS'unplundered'
p6970
I1
sS'doofus-on-'
p6971
I1
sS'jersey'
p6972
I1
sS'grounds'
p6973
I1
sS'torn'
p6974
I2
sS'premise'
p6975
I17
sS'excruciatingly'
p6976
I1
sS'shoving'
p6977
I1
sS'wonder'
p6978
I8
sS'penetrating'
p6979
I1
sS'walk'
p6980
I3
sS'distinguish'
p6981
I2
sS'cynicism'
p6982
I2
sS'table'
p6983
I3
sS'unclean'
p6984
I1
sS'poem'
p6985
I1
sS'addition'
p6986
I2
sS'decent'
p6987
I4
sS'wills'
p6988
I2
sS'sara'
p6989
I4
sS'trademark'
p6990
I1
sS'relying'
p6991
I1
sS'literal'
p6992
I1
sS'slowly'
p6993
I3
sS'treat'
p6994
I2
sS'freak'
p6995
I1
sS'troopers'
p6996
I1
sS'mike'
p6997
I1
sS'circus'
p6998
I1
sS'constitutes'
p6999
I1
sS'retrospective'
p7000
I1
sS'provoke'
p7001
I2
sS'sufficient'
p7002
I2
sS'ranges'
p7003
I1
sS'topless'
p7004
I1
sS'ghoulish'
p7005
I1
sS'kicks'
p7006
I3
sS'smoking'
p7007
I1
sS'repetition'
p7008
I2
sS'tanks'
p7009
I1
sS'shameless'
p7010
I1
sS'erin'
p7011
I1
sS'novel'
p7012
I5
sS'riddles'
p7013
I1
sS'unlike'
p7014
I2
sS'intimidate'
p7015
I1
sS'sterility'
p7016
I1
sS'harder'
p7017
I2
sS'pandemonium'
p7018
I1
sS'choices'
p7019
I3
sS'stunning'
p7020
I2
sS'wild'
p7021
I8
sS'bolero'
p7022
I1
sS'major-league'
p7023
I1
sS'ringing'
p7024
I2
sS'resident'
p7025
I3
sS'evelyn'
p7026
I1
sS'surface'
p7027
I1
sS'demi'
p7028
I1
sS'audiences'
p7029
I7
sS'swinging'
p7030
I1
sS'transvestite'
p7031
I1
sS'bucks'
p7032
I1
sS'thud'
p7033
I1
sS'goodfellas'
p7034
I2
sS'stands'
p7035
I2
sS'eccentricities'
p7036
I1
sS'riddled'
p7037
I1
sS'generic'
p7038
I9
sS'college-spawned'
p7039
I1
sS'balloon'
p7040
I1
sS'maddening'
p7041
I1
sS'sparring'
p7042
I1
sS'campus'
p7043
I1
sS'propensity'
p7044
I1
sS'unity'
p7045
I1
sS'parts'
p7046
I3
sS'conversations'
p7047
I1
sS'meets-john'
p7048
I1
sS'party'
p7049
I6
sS'fanatics'
p7050
I1
sS'tomatoes'
p7051
I1
sS'difficult'
p7052
I9
sS'haranguing'
p7053
I1
sS'fraternity'
p7054
I1
sS'impeccably'
p7055
I1
sS'eccentric'
p7056
I2
sS'dialog'
p7057
I1
sS'buzz'
p7058
I1
sS'disagree'
p7059
I1
sS'effect'
p7060
I5
sS'beast'
p7061
I1
sS'disquieting'
p7062
I1
sS'subtexts'
p7063
I1
sS'unintelligible'
p7064
I1
sS'student'
p7065
I1
sS'fierce'
p7066
I1
sS'frequently'
p7067
I2
sS'whale'
p7068
I2
sS'nation'
p7069
I1
sS'lobby'
p7070
I1
sS'endearing'
p7071
I1
sS'keep'
p7072
I7
sS'videos'
p7073
I4
sS'compendium'
p7074
I1
sS'scarcely'
p7075
I2
sS'appropriated'
p7076
I1
sS'obstacles'
p7077
I1
sS'well'
p7078
I29
sS'fighting'
p7079
I4
sS'rife'
p7080
I1
sS'vincent'
p7081
I4
sS'aims'
p7082
I2
sS'dressed'
p7083
I1
sS'cowering'
p7084
I1
sS'contenders'
p7085
I1
sS'restore'
p7086
I1
sS'underdog'
p7087
I1
sS'increasingly'
p7088
I4
sS'caine'
p7089
I2
sS'plumbs'
p7090
I1
sS'mistaken'
p7091
I2
sS'dose'
p7092
I1
sS'sources'
p7093
I2
sS'gussied'
p7094
I2
sS'fishing'
p7095
I1
sS'tautou'
p7096
I1
sS'skill'
p7097
I3
sS'higuchinsky'
p7098
I1
sS'penchant'
p7099
I1
sS'serbs'
p7100
I1
sS'weightless'
p7101
I2
sS'nicks'
p7102
I1
sS'headed'
p7103
I1
sS'smith'
p7104
I1
sS'uncommonly'
p7105
I1
sS'reasons'
p7106
I3
sS'attractive'
p7107
I1
sS'miramax'
p7108
I1
sS'tax'
p7109
I1
sS'possess'
p7110
I1
sS'ski'
p7111
I1
sS'kick'
p7112
I2
sS'captivating'
p7113
I1
sS'fate'
p7114
I1
sS'knockaround'
p7115
I1
sS'pay-off'
p7116
I1
sS'esquerdo'
p7117
I1
sS'formulaic'
p7118
I8
sS'know'
p7119
I14
sS'facial'
p7120
I1
sS'press'
p7121
I1
sS'immediately'
p7122
I1
sS'coincidence'
p7123
I1
sS'muscle'
p7124
I1
sS'loss'
p7125
I1
sS'incredibly'
p7126
I4
sS'necessary'
p7127
I1
sS'lost'
p7128
I11
sS'candy'
p7129
I4
sS'loses'
p7130
I8
sS'filmed'
p7131
I5
sS'dresses'
p7132
I1
sS'lose'
p7133
I1
sS'setups'
p7134
I1
sS'leaves'
p7135
I12
sS'starred'
p7136
I1
sS'conclusion'
p7137
I5
sS'rote'
p7138
I2
sS'page'
p7139
I1
sS'psychologically'
p7140
I1
sS'jarecki'
p7141
I1
sS'warmed'
p7142
I1
sS'sequence'
p7143
I4
sS'scared'
p7144
I1
sS'unsuccessful'
p7145
I2
sS'pretention'
p7146
I1
sS'searching'
p7147
I2
sS'schwarzenegger'
p7148
I5
sS'leers'
p7149
I1
sS'reimagine'
p7150
I1
sS'home'
p7151
I9
sS'empire'
p7152
I2
sS'peter'
p7153
I5
sS'leery'
p7154
I1
sS'scares'
p7155
I2
sS'possibilities'
p7156
I1
sS'spoofy'
p7157
I1
sS'jeremy'
p7158
I1
sS'lead'
p7159
I6
sS'broad'
p7160
I4
sS'markers'
p7161
I1
sS'appreciative'
p7162
I1
sS'rewarding'
p7163
I3
sS'headaches'
p7164
I1
sS'demonstrated'
p7165
I1
sS'limitations'
p7166
I1
sS'says'
p7167
I2
sS'murderer'
p7168
I1
sS'indicated'
p7169
I1
sS'reaching'
p7170
I1
sS'astounding'
p7171
I1
sS'journal'
p7172
I1
sS'dictator-madman'
p7173
I1
sS'chokes'
p7174
I1
sS'expansion'
p7175
I1
sS'wesley'
p7176
I1
sS'poignant'
p7177
I1
sS'pulpy'
p7178
I1
sS'mikes'
p7179
I1
sS'rare'
p7180
I4
sS'getting'
p7181
I11
sS'column'
p7182
I1
sS'universe'
p7183
I2
sS'consciousness'
p7184
I1
sS'sinister'
p7185
I1
sS'recognized'
p7186
I1
sS'epiphany'
p7187
I2
sS'swear'
p7188
I1
sS'puppies'
p7189
I1
sS'tongue'
p7190
I2
sS'wedgie'
p7191
I1
sS'artiste'
p7192
I1
sS'equally'
p7193
I5
sS'strangeness'
p7194
I1
sS'glenn'
p7195
I1
sS'previously'
p7196
I1
sS'creativity'
p7197
I5
sS'vulgarity'
p7198
I1
sS'withholds'
p7199
I1
sS'promise'
p7200
I7
sS'treads'
p7201
I2
sS'pollak'
p7202
I1
sS'dug'
p7203
I1
sS'pointless'
p7204
I9
sS'hard-to-swallow'
p7205
I1
sS'hmmmmm'
p7206
I1
sS'clown'
p7207
I1
sS'mississippi'
p7208
I1
sS'prozac'
p7209
I1
sS'second-guess'
p7210
I1
sS'val'
p7211
I1
sS'museum'
p7212
I1
sS'relegated'
p7213
I1
sS'intention'
p7214
I2
sS'delusions'
p7215
I1
sS'inner'
p7216
I1
sS'ed'
p7217
I1
sS'dynamite'
p7218
I1
sS'vat'
p7219
I1
sS'unexamined'
p7220
I1
sS'ghost'
p7221
I5
sS're-do'
p7222
I1
sS'editing'
p7223
I6
sS'xerox'
p7224
I1
sS'prophecies'
p7225
I2
sS'near-fatal'
p7226
I1
sS'hi'
p7227
I1
sS'contradictory'
p7228
I1
sS'gain'
p7229
I1
sS'wince'
p7230
I1
sS'ha'
p7231
I2
sS'eat'
p7232
I1
sS'viewers'
p7233
I12
sS'paean'
p7234
I1
sS'made'
p7235
I47
sS'tactics'
p7236
I1
sS'whether'
p7237
I5
sS'hammily'
p7238
I1
sS'converted'
p7239
I1
sS'stories'
p7240
I3
sS'demonstrate'
p7241
I2
sS'piece'
p7242
I9
sS'display'
p7243
I4
sS'stirring'
p7244
I2
sS'mechanics'
p7245
I1
sS'unfolding'
p7246
I1
sS'horrific'
p7247
I1
sS'buffs'
p7248
I1
sS'universal'
p7249
I2
sS'girl-on-girl'
p7250
I1
sS'generating'
p7251
I2
sS'upsets'
p7252
I1
sS'twist'
p7253
I4
sS'half-formed'
p7254
I1
sS'pastiche'
p7255
I3
sS'squaddie'
p7256
I1
sS'eric'
p7257
I3
sS'authority'
p7258
I2
sS'infatuated'
p7259
I1
sS'ingredients'
p7260
I4
sS'fell'
p7261
I1
sS'obsession'
p7262
I2
sS'offensive'
p7263
I4
sS'dogtown'
p7264
I1
sS'book'
p7265
I11
sS'boom'
p7266
I1
sS'sick'
p7267
I3
sS'perdition'
p7268
I2
sS'suspiciously'
p7269
I1
sS'hysteria'
p7270
I1
sS'sica'
p7271
I1
sS'clicks'
p7272
I2
sS'something-borrowed'
p7273
I1
sS'cheesiest'
p7274
I2
sS'junk'
p7275
I4
sS'star'
p7276
I14
sS'living'
p7277
I4
sS'feelings'
p7278
I3
sS'inescapable'
p7279
I1
sS'putrid'
p7280
I1
sS'stay'
p7281
I4
sS'stab'
p7282
I1
sS'kinda'
p7283
I3
sS'sandler'
p7284
I2
sS'mediocrity'
p7285
I1
sS'agonizing'
p7286
I1
sS'friends'
p7287
I1
sS'fisticuffs'
p7288
I1
sS'coupling'
p7289
I1
sS'insipid'
p7290
I3
sS'rotting'
p7291
I1
sS'came'
p7292
I2
sS'hack-artist'
p7293
I1
sS'untalented'
p7294
I1
sS'lives'
p7295
I4
sS'misconceived'
p7296
I1
sS'simpson'
p7297
I1
s.